EXPORTS 
	?$TSS0@?1??get_console_font_size@@YAXAEAI0@Z@4HA 	 DATA
	?$TSS0@?1??get_console_size@@YAXAEAI0@Z@4HA 	 DATA
	?$TSS0@?1??print_color@@YAXH@Z@4HA 	 DATA
	?$TSS0@?1??print_color@@YAXHH@Z@4HA 	 DATA
	?$TSS0@?1??print_color_reset@@YAXXZ@4HA 	 DATA
	??_R0?AU_Crt_new_delete@std@@@8 	 DATA
	??_R0?AV?$_Iosb@H@std@@@8 	 DATA
	??_R0?AV?$_Node_class@DV?$regex_traits@D@std@@@std@@@8 	 DATA
	??_R0?AV?$_Node_str@D@std@@@8 	 DATA
	??_R0?AV?$basic_filebuf@DU?$char_traits@D@std@@@std@@@8 	 DATA
	??_R0?AV?$basic_ifstream@DU?$char_traits@D@std@@@std@@@8 	 DATA
	??_R0?AV?$basic_ios@DU?$char_traits@D@std@@@std@@@8 	 DATA
	??_R0?AV?$basic_istream@DU?$char_traits@D@std@@@std@@@8 	 DATA
	??_R0?AV?$basic_ofstream@DU?$char_traits@D@std@@@std@@@8 	 DATA
	??_R0?AV?$basic_ostream@DU?$char_traits@D@std@@@std@@@8 	 DATA
	??_R0?AV?$basic_streambuf@DU?$char_traits@D@std@@@std@@@8 	 DATA
	??_R0?AV?$collate@D@std@@@8 	 DATA
	??_R0?AV_Facet_base@std@@@8 	 DATA
	??_R0?AV_Generic_error_category@std@@@8 	 DATA
	??_R0?AV_Node_assert@std@@@8 	 DATA
	??_R0?AV_Node_back@std@@@8 	 DATA
	??_R0?AV_Node_base@std@@@8 	 DATA
	??_R0?AV_Node_capture@std@@@8 	 DATA
	??_R0?AV_Node_end_group@std@@@8 	 DATA
	??_R0?AV_Node_end_rep@std@@@8 	 DATA
	??_R0?AV_Node_endif@std@@@8 	 DATA
	??_R0?AV_Node_if@std@@@8 	 DATA
	??_R0?AV_Node_rep@std@@@8 	 DATA
	??_R0?AV_Root_node@std@@@8 	 DATA
	??_R0?AV_System_error@std@@@8 	 DATA
	??_R0?AV_System_error_category@std@@@8 	 DATA
	??_R0?AVbad_alloc@std@@@8 	 DATA
	??_R0?AVbad_array_new_length@std@@@8 	 DATA
	??_R0?AVbad_cast@std@@@8 	 DATA
	??_R0?AVerror_category@std@@@8 	 DATA
	??_R0?AVexception@std@@@8 	 DATA
	??_R0?AVfacet@locale@std@@@8 	 DATA
	??_R0?AVfilesystem_error@filesystem@std@@@8 	 DATA
	??_R0?AVios_base@std@@@8 	 DATA
	??_R0?AVruntime_error@std@@@8 	 DATA
	??_R0?AVsystem_error@std@@@8 	 DATA
	?LODEPNG_VERSION_STRING@@3PEBDEB 	 DATA
	?_Psave@?$_Facetptr@V?$codecvt@DDU_Mbstatet@@@std@@@std@@2PEBVfacet@locale@2@EB 	 DATA
	?_Psave@?$_Facetptr@V?$collate@D@std@@@std@@2PEBVfacet@locale@2@EB 	 DATA
	?_Psave@?$_Facetptr@V?$ctype@D@std@@@std@@2PEBVfacet@locale@2@EB 	 DATA
	?_Static@?1???$_Immortalize_memcpy_image@V_Generic_error_category@std@@@std@@YAAEBV_Generic_error_category@1@XZ@4U?$_Constexpr_immortalize_impl@V_Generic_error_category@std@@@1@A 	 DATA
	?_Static@?1???$_Immortalize_memcpy_image@V_System_error_category@std@@@std@@YAAEBV_System_error_category@1@XZ@4U?$_Constexpr_immortalize_impl@V_System_error_category@std@@@1@A 	 DATA
	?_Stinit@?1??_Init@?$basic_filebuf@DU?$char_traits@D@std@@@std@@IEAAXPEAU_iobuf@@W4_Initfl@23@@Z@4U_Mbstatet@@A 	 DATA
	?camera@@3VCamera@@A 	 DATA
	?default_@CommandQueue@cl@@0V12@A 	 DATA
	?default_@Context@cl@@0V12@A 	 DATA
	?displayDC@@3PEAUHDC__@@EA 	 DATA
	?frameDC@@3PEAUHBITMAP__@@EA 	 DATA
	?handle@?1??get_console_font_size@@YAXAEAI0@Z@4QEAXEA 	 DATA
	?handle@?1??get_console_size@@YAXAEAI0@Z@4QEAXEA 	 DATA
	?handle@?1??print_color@@YAXH@Z@4QEAXEA 	 DATA
	?handle@?1??print_color@@YAXHH@Z@4QEAXEA 	 DATA
	?handle@?1??print_color_reset@@YAXXZ@4QEAXEA 	 DATA
	?info@@3UInfo@@A 	 DATA
	?key_0@@3_NA 	 DATA
	?key_1@@3_NA 	 DATA
	?key_2@@3_NA 	 DATA
	?key_3@@3_NA 	 DATA
	?key_4@@3_NA 	 DATA
	?key_5@@3_NA 	 DATA
	?key_6@@3_NA 	 DATA
	?key_7@@3_NA 	 DATA
	?key_8@@3_NA 	 DATA
	?key_9@@3_NA 	 DATA
	?key_E@@3_NA 	 DATA
	?key_G@@3_NA 	 DATA
	?key_H@@3_NA 	 DATA
	?key_O@@3_NA 	 DATA
	?key_P@@3_NA 	 DATA
	?key_Q@@3_NA 	 DATA
	?key_T@@3_NA 	 DATA
	?key_Z@@3_NA 	 DATA
	?light_sources@@3PAUfloat3@@A 	 DATA
	?light_sources_n@@3IA 	 DATA
	?main_arguments@@3V?$vector@V?$basic_string@DU?$char_traits@D@std@@V?$allocator@D@2@@std@@V?$allocator@V?$basic_string@DU?$char_traits@D@std@@V?$allocator@D@2@@std@@@2@@std@@A 	 DATA
	?memDC@@3PEAUHDC__@@EA 	 DATA
	?running@@3U?$atomic@_N@std@@A 	 DATA
	?units@@3VUnits@@A 	 DATA
	?window@@3PEAUHWND__@@EA 	 DATA
	??$?0IV?$Memory@G@@V?$Memory@M@@V?$Memory@E@@_KEV?$Memory@Ufloat3@@@@V3@V3@V1@@Kernel@@QEAA@AEBVDevice@@_KAEBV?$basic_string@DU?$char_traits@D@std@@V?$allocator@D@2@@std@@AEBIAEBV?$Memory@G@@AEBV?$Memory@M@@AEBV?$Memory@E@@AEB_KAEBEAEBV?$Memory@Ufloat3@@@@995@Z
	??$?0I_KV?$Memory@D@@V0@V?$Memory@E@@@Kernel@@QEAA@AEBVDevice@@_KAEBV?$basic_string@DU?$char_traits@D@std@@V?$allocator@D@2@@std@@AEBIAEB_KAEBV?$Memory@D@@5AEBV?$Memory@E@@@Z
	??$?0I_KV?$Memory@D@@V0@V?$Memory@G@@@Kernel@@QEAA@AEBVDevice@@_KAEBV?$basic_string@DU?$char_traits@D@std@@V?$allocator@D@2@@std@@AEBIAEB_KAEBV?$Memory@D@@5AEBV?$Memory@G@@@Z
	??$?0I_KV?$Memory@D@@V0@V?$Memory@M@@V1@V?$Memory@E@@@Kernel@@QEAA@AEBVDevice@@_KAEBV?$basic_string@DU?$char_traits@D@std@@V?$allocator@D@2@@std@@AEBIAEB_KAEBV?$Memory@D@@5AEBV?$Memory@M@@6AEBV?$Memory@E@@@Z
	??$?0V?$Memory@E@@@Kernel@@QEAA@AEBVDevice@@_KAEBV?$basic_string@DU?$char_traits@D@std@@V?$allocator@D@2@@std@@AEBV?$Memory@E@@@Z
	??$?0V?$Memory@E@@EMMMMMM@Kernel@@QEAA@AEBVDevice@@_KAEBV?$basic_string@DU?$char_traits@D@std@@V?$allocator@D@2@@std@@AEBV?$Memory@E@@AEBEAEBM55555@Z
	??$?0V?$Memory@E@@V?$Memory@M@@V1@V?$Memory@H@@V2@@Kernel@@QEAA@AEBVDevice@@_KAEBV?$basic_string@DU?$char_traits@D@std@@V?$allocator@D@2@@std@@AEBV?$Memory@E@@AEBV?$Memory@M@@4AEBV?$Memory@H@@5@Z
	??$?0V?$Memory@E@@V?$Memory@M@@V1@V?$Memory@H@@V2@HHHH@Kernel@@QEAA@AEBVDevice@@_KAEBV?$basic_string@DU?$char_traits@D@std@@V?$allocator@D@2@@std@@AEBV?$Memory@E@@AEBV?$Memory@M@@4AEBV?$Memory@H@@5AEBH666@Z
	??$?0V?$Memory@E@@V?$Memory@M@@V?$Memory@H@@V2@@Kernel@@QEAA@AEBVDevice@@_KAEBV?$basic_string@DU?$char_traits@D@std@@V?$allocator@D@2@@std@@AEBV?$Memory@E@@AEBV?$Memory@M@@AEBV?$Memory@H@@5@Z
	??$?0V?$Memory@G@@V?$Memory@M@@V1@V?$Memory@E@@@Kernel@@QEAA@AEBVDevice@@_KAEBV?$basic_string@DU?$char_traits@D@std@@V?$allocator@D@2@@std@@AEBV?$Memory@G@@AEBV?$Memory@M@@4AEBV?$Memory@E@@@Z
	??$?0V?$Memory@G@@V?$Memory@M@@V1@V?$Memory@E@@V1@V1@V1@_KMMM@Kernel@@QEAA@AEBVDevice@@_KAEBV?$basic_string@DU?$char_traits@D@std@@V?$allocator@D@2@@std@@AEBV?$Memory@G@@AEBV?$Memory@M@@4AEBV?$Memory@E@@444AEB_KAEBM77@Z
	??$?0V?$Memory@G@@V?$Memory@M@@V1@V?$Memory@E@@_K@Kernel@@QEAA@AEBVDevice@@_KAEBV?$basic_string@DU?$char_traits@D@std@@V?$allocator@D@2@@std@@AEBV?$Memory@G@@AEBV?$Memory@M@@4AEBV?$Memory@E@@AEB_K@Z
	??$?0V?$Memory@G@@V?$Memory@M@@V1@V?$Memory@E@@_KMMM@Kernel@@QEAA@AEBVDevice@@_KAEBV?$basic_string@DU?$char_traits@D@std@@V?$allocator@D@2@@std@@AEBV?$Memory@G@@AEBV?$Memory@M@@4AEBV?$Memory@E@@AEB_KAEBM77@Z
	??$?0V?$Memory@H@@V0@@Kernel@@QEAA@AEBVDevice@@_KAEBV?$basic_string@DU?$char_traits@D@std@@V?$allocator@D@2@@std@@AEBV?$Memory@H@@3@Z
	??$?0V?$Memory@M@@V0@V?$Memory@H@@V1@@Kernel@@QEAA@AEBVDevice@@_KAEBV?$basic_string@DU?$char_traits@D@std@@V?$allocator@D@2@@std@@AEBV?$Memory@M@@3AEBV?$Memory@H@@4@Z
	??$?0V?$Memory@M@@V?$Memory@E@@V0@V0@V0@@Kernel@@QEAA@AEBVDevice@@_KAEBV?$basic_string@DU?$char_traits@D@std@@V?$allocator@D@2@@std@@AEBV?$Memory@M@@AEBV?$Memory@E@@333@Z
	??$?0V?$Memory@M@@V?$Memory@E@@V?$Memory@H@@V0@V2@@Kernel@@QEAA@AEBVDevice@@_KAEBV?$basic_string@DU?$char_traits@D@std@@V?$allocator@D@2@@std@@AEBV?$Memory@M@@AEBV?$Memory@E@@AEBV?$Memory@H@@35@Z
	??$?6DU?$char_traits@D@std@@V?$allocator@D@1@@std@@YAAEAV?$basic_ostream@DU?$char_traits@D@std@@@0@AEAV10@AEBV?$basic_string@DU?$char_traits@D@std@@V?$allocator@D@2@@0@@Z
	??$?8V?$_String_const_iterator@V?$_String_val@U?$_Simple_types@D@std@@@std@@@std@@@std@@YA_NAEBV?$sub_match@V?$_String_const_iterator@V?$_String_val@U?$_Simple_types@D@std@@@std@@@std@@@0@0@Z
	??$?HDU?$char_traits@D@std@@V?$allocator@D@1@@std@@YA?AV?$basic_string@DU?$char_traits@D@std@@V?$allocator@D@2@@0@$$QEAV10@0@Z
	??$?HDU?$char_traits@D@std@@V?$allocator@D@1@@std@@YA?AV?$basic_string@DU?$char_traits@D@std@@V?$allocator@D@2@@0@$$QEAV10@AEBV10@@Z
	??$?HDU?$char_traits@D@std@@V?$allocator@D@1@@std@@YA?AV?$basic_string@DU?$char_traits@D@std@@V?$allocator@D@2@@0@$$QEAV10@QEBD@Z
	??$?HDU?$char_traits@D@std@@V?$allocator@D@1@@std@@YA?AV?$basic_string@DU?$char_traits@D@std@@V?$allocator@D@2@@0@QEBD$$QEAV10@@Z
	??$?HDU?$char_traits@D@std@@V?$allocator@D@1@@std@@YA?AV?$basic_string@DU?$char_traits@D@std@@V?$allocator@D@2@@0@QEBDAEBV10@@Z
	??$_Allocate_manually_vector_aligned@U_Default_allocate_traits@std@@@std@@YAPEAX_K@Z
	??$_Assign_range@PEAPEAU_cl_device_id@@@?$vector@VDevice@cl@@V?$allocator@VDevice@cl@@@std@@@std@@AEAAXPEAPEAU_cl_device_id@@0Uforward_iterator_tag@1@@Z
	??$_Assign_range@PEAPEAU_cl_platform_id@@@?$vector@VPlatform@cl@@V?$allocator@VPlatform@cl@@@std@@@std@@AEAAXPEAPEAU_cl_platform_id@@0Uforward_iterator_tag@1@@Z
	??$_Atomic_address_as@DU?$_Atomic_padded@_N@std@@@std@@YAPECDAEAU?$_Atomic_padded@_N@0@@Z
	??$_Atomic_address_as@DU?$_Atomic_padded@_N@std@@@std@@YAPEDDAEBU?$_Atomic_padded@_N@0@@Z
	??$_Atomic_address_as@HU?$_Atomic_padded@H@std@@@std@@YAPEDHAEBU?$_Atomic_padded@H@0@@Z
	??$_Atomic_address_as@JU?$_Atomic_padded@H@std@@@std@@YAPECJAEAU?$_Atomic_padded@H@0@@Z
	??$_Atomic_reinterpret_as@D_N@std@@YADAEB_N@Z
	??$_Cmp_chrange@PEBDPEBDU?$_Cmp_collate@V?$regex_traits@D@std@@@std@@@std@@YAPEBDPEBD000U?$_Cmp_collate@V?$regex_traits@D@std@@@0@@Z
	??$_Cmp_chrange@PEBDPEBDU?$_Cmp_cs@V?$regex_traits@D@std@@@std@@@std@@YAPEBDPEBD000U?$_Cmp_cs@V?$regex_traits@D@std@@@0@@Z
	??$_Cmp_chrange@PEBDPEBDU?$_Cmp_icase@V?$regex_traits@D@std@@@std@@@std@@YAPEBDPEBD000U?$_Cmp_icase@V?$regex_traits@D@std@@@0@@Z
	??$_Cmp_chrange@V?$_String_const_iterator@V?$_String_val@U?$_Simple_types@D@std@@@std@@@std@@PEBDU?$_Cmp_collate@V?$regex_traits@D@std@@@2@@std@@YA?AV?$_String_const_iterator@V?$_String_val@U?$_Simple_types@D@std@@@std@@@0@V10@0PEBD1U?$_Cmp_collate@V?$regex_traits@D@std@@@0@@Z
	??$_Cmp_chrange@V?$_String_const_iterator@V?$_String_val@U?$_Simple_types@D@std@@@std@@@std@@PEBDU?$_Cmp_cs@V?$regex_traits@D@std@@@2@@std@@YA?AV?$_String_const_iterator@V?$_String_val@U?$_Simple_types@D@std@@@std@@@0@V10@0PEBD1U?$_Cmp_cs@V?$regex_traits@D@std@@@0@@Z
	??$_Cmp_chrange@V?$_String_const_iterator@V?$_String_val@U?$_Simple_types@D@std@@@std@@@std@@PEBDU?$_Cmp_icase@V?$regex_traits@D@std@@@2@@std@@YA?AV?$_String_const_iterator@V?$_String_val@U?$_Simple_types@D@std@@@std@@@0@V10@0PEBD1U?$_Cmp_icase@V?$regex_traits@D@std@@@0@@Z
	??$_Cmp_chrange@V?$_String_const_iterator@V?$_String_val@U?$_Simple_types@D@std@@@std@@@std@@V12@U?$_Cmp_collate@V?$regex_traits@D@std@@@2@@std@@YA?AV?$_String_const_iterator@V?$_String_val@U?$_Simple_types@D@std@@@std@@@0@V10@000U?$_Cmp_collate@V?$regex_traits@D@std@@@0@@Z
	??$_Cmp_chrange@V?$_String_const_iterator@V?$_String_val@U?$_Simple_types@D@std@@@std@@@std@@V12@U?$_Cmp_cs@V?$regex_traits@D@std@@@2@@std@@YA?AV?$_String_const_iterator@V?$_String_val@U?$_Simple_types@D@std@@@std@@@0@V10@000U?$_Cmp_cs@V?$regex_traits@D@std@@@0@@Z
	??$_Cmp_chrange@V?$_String_const_iterator@V?$_String_val@U?$_Simple_types@D@std@@@std@@@std@@V12@U?$_Cmp_icase@V?$regex_traits@D@std@@@2@@std@@YA?AV?$_String_const_iterator@V?$_String_val@U?$_Simple_types@D@std@@@std@@@0@V10@000U?$_Cmp_icase@V?$regex_traits@D@std@@@0@@Z
	??$_Compare@PEBDPEBDV?$regex_traits@D@std@@@std@@YAPEBDPEBD000AEBV?$regex_traits@D@0@W4syntax_option_type@regex_constants@0@@Z
	??$_Compare@V?$_String_const_iterator@V?$_String_val@U?$_Simple_types@D@std@@@std@@@std@@PEBDV?$regex_traits@D@2@@std@@YA?AV?$_String_const_iterator@V?$_String_val@U?$_Simple_types@D@std@@@std@@@0@V10@0PEBD1AEBV?$regex_traits@D@0@W4syntax_option_type@regex_constants@0@@Z
	??$_Compare@V?$_String_const_iterator@V?$_String_val@U?$_Simple_types@D@std@@@std@@@std@@V12@V?$regex_traits@D@2@@std@@YA?AV?$_String_const_iterator@V?$_String_val@U?$_Simple_types@D@std@@@std@@@0@V10@000AEBV?$regex_traits@D@0@W4syntax_option_type@regex_constants@0@@Z
	??$_Convert_Source_to_wide@V?$basic_string@DU?$char_traits@D@std@@V?$allocator@D@2@@std@@U_Normal_conversion@filesystem@2@@filesystem@std@@YA?AV?$basic_string@_WU?$char_traits@_W@std@@V?$allocator@_W@2@@1@AEBV?$basic_string@DU?$char_traits@D@std@@V?$allocator@D@2@@1@U_Normal_conversion@01@@Z
	??$_Convert_stringoid_to_wide@U_Normal_conversion@filesystem@std@@@filesystem@std@@YA?AV?$basic_string@_WU?$char_traits@_W@std@@V?$allocator@_W@2@@1@V?$basic_string_view@DU?$char_traits@D@std@@@1@U_Normal_conversion@01@@Z
	??$_Convert_wide_to_narrow_replace_chars@U?$char_traits@D@std@@V?$allocator@D@2@@filesystem@std@@YA?AV?$basic_string@DU?$char_traits@D@std@@V?$allocator@D@2@@1@W4__std_code_page@@V?$basic_string_view@_WU?$char_traits@_W@std@@@1@AEBV?$allocator@D@1@@Z
	??$_Copy_backward_memmove@PEAEPEAE@std@@YAPEAEPEAE00@Z
	??$_Copy_memmove@PEADPEAD@std@@YAPEADPEAD00@Z
	??$_Copy_memmove@PEAEPEAE@std@@YAPEAEPEAE00@Z
	??$_Copy_memmove@PEAHPEAH@std@@YAPEAHPEAH00@Z
	??$_Copy_memmove@PEAIPEAI@std@@YAPEAIPEAI00@Z
	??$_Copy_memmove@PEAU_Grp_t@?$_Tgt_state_t@PEBD@std@@PEAU123@@std@@YAPEAU_Grp_t@?$_Tgt_state_t@PEBD@0@PEAU120@00@Z
	??$_Copy_memmove@PEAU_Grp_t@?$_Tgt_state_t@V?$_String_const_iterator@V?$_String_val@U?$_Simple_types@D@std@@@std@@@std@@@std@@PEAU123@@std@@YAPEAU_Grp_t@?$_Tgt_state_t@V?$_String_const_iterator@V?$_String_val@U?$_Simple_types@D@std@@@std@@@std@@@0@PEAU120@00@Z
	??$_Copy_memmove@PEAU_Loop_vals_t@std@@PEAU12@@std@@YAPEAU_Loop_vals_t@0@PEAU10@00@Z
	??$_Copy_memmove@PEBDPEAD@std@@YAPEADPEBD0PEAD@Z
	??$_Copy_memmove@PEBHPEAH@std@@YAPEAHPEBH0PEAH@Z
	??$_Copy_unchecked@PEAPEAU_cl_device_id@@PEAVDevice@cl@@@std@@YAPEAVDevice@cl@@PEAPEAU_cl_device_id@@0PEAV12@@Z
	??$_Destroy_range@V?$allocator@UDevice_Info@@@std@@@std@@YAXPEAUDevice_Info@@QEAU1@AEAV?$allocator@UDevice_Info@@@0@@Z
	??$_Destroy_range@V?$allocator@V?$basic_string@DU?$char_traits@D@std@@V?$allocator@D@2@@std@@@std@@@std@@YAXPEAV?$basic_string@DU?$char_traits@D@std@@V?$allocator@D@2@@0@QEAV10@AEAV?$allocator@V?$basic_string@DU?$char_traits@D@std@@V?$allocator@D@2@@std@@@0@@Z
	??$_Destroy_range@V?$allocator@V?$vector@UDevice_Info@@V?$allocator@UDevice_Info@@@std@@@std@@@std@@@std@@YAXPEAV?$vector@UDevice_Info@@V?$allocator@UDevice_Info@@@std@@@0@QEAV10@AEAV?$allocator@V?$vector@UDevice_Info@@V?$allocator@UDevice_Info@@@std@@@std@@@0@@Z
	??$_Emplace_reallocate@AEBUDevice_Info@@@?$vector@UDevice_Info@@V?$allocator@UDevice_Info@@@std@@@std@@QEAAPEAUDevice_Info@@QEAU2@AEBU2@@Z
	??$_Emplace_reallocate@U?$pair@PEBD_K@std@@@?$vector@U?$pair@PEBD_K@std@@V?$allocator@U?$pair@PEBD_K@std@@@2@@std@@QEAAPEAU?$pair@PEBD_K@1@QEAU21@$$QEAU21@@Z
	??$_Emplace_reallocate@UDevice_Info@@@?$vector@UDevice_Info@@V?$allocator@UDevice_Info@@@std@@@std@@QEAAPEAUDevice_Info@@QEAU2@$$QEAU2@@Z
	??$_Emplace_reallocate@V?$basic_string@DU?$char_traits@D@std@@V?$allocator@D@2@@std@@@?$vector@V?$basic_string@DU?$char_traits@D@std@@V?$allocator@D@2@@std@@V?$allocator@V?$basic_string@DU?$char_traits@D@std@@V?$allocator@D@2@@std@@@2@@std@@QEAAPEAV?$basic_string@DU?$char_traits@D@std@@V?$allocator@D@2@@1@QEAV21@$$QEAV21@@Z
	??$_Emplace_reallocate@V?$vector@UDevice_Info@@V?$allocator@UDevice_Info@@@std@@@std@@@?$vector@V?$vector@UDevice_Info@@V?$allocator@UDevice_Info@@@std@@@std@@V?$allocator@V?$vector@UDevice_Info@@V?$allocator@UDevice_Info@@@std@@@std@@@2@@std@@QEAAPEAV?$vector@UDevice_Info@@V?$allocator@UDevice_Info@@@std@@@1@QEAV21@$$QEAV21@@Z
	??$_Fill_zero_memset@PEAI@std@@YAXPEAI_K@Z
	??$_Getvals@_W@?$time_get@DV?$istreambuf_iterator@DU?$char_traits@D@std@@@std@@@std@@IEAAX_WAEBV_Locinfo@1@@Z
	??$_Getvals@_W@?$time_get@_WV?$istreambuf_iterator@_WU?$char_traits@_W@std@@@std@@@std@@IEAAX_WAEBV_Locinfo@1@@Z
	??$_Hash_array_representation@D@std@@YA_KQEBD_K@Z
	??$_Immortalize_memcpy_image@V_Generic_error_category@std@@@std@@YAAEBV_Generic_error_category@0@XZ
	??$_Immortalize_memcpy_image@V_System_error_category@std@@@std@@YAAEBV_System_error_category@0@XZ
	??$_Insert_range@PEAE@?$vector@EV?$allocator@E@std@@@std@@AEAAXV?$_Vector_const_iterator@V?$_Vector_val@U?$_Simple_types@E@std@@@std@@@1@PEAE1Uforward_iterator_tag@1@@Z
	??$_Insert_string@DU?$char_traits@D@std@@_K@std@@YAAEAV?$basic_ostream@DU?$char_traits@D@std@@@0@AEAV10@QEBD_K@Z
	??$_Invoke@V?$tuple@P6AXPEAVImage@@AEBV?$basic_string@DU?$char_traits@D@std@@V?$allocator@D@2@@std@@1PEAU?$atomic@H@3@@ZPEAV1@V23@V23@PEAU43@@std@@$0A@$00$01$02$03@thread@std@@CAIPEAX@Z
	??$_Invoke@V?$tuple@P6AXXZ@std@@$0A@@thread@std@@CAIPEAX@Z
	??$_Is_all_bits_zero@I@std@@YA_NAEBI@Z
	??$_Lookup_coll@PEBDD@std@@YAPEBDPEBD0PEBU?$_Sequence@D@0@@Z
	??$_Lookup_coll@V?$_String_const_iterator@V?$_String_val@U?$_Simple_types@D@std@@@std@@@std@@D@std@@YA?AV?$_String_const_iterator@V?$_String_val@U?$_Simple_types@D@std@@@std@@@0@V10@0PEBU?$_Sequence@D@0@@Z
	??$_Lookup_equiv@DV?$regex_traits@D@std@@@std@@YA_NEPEBU?$_Sequence@D@0@AEBV?$regex_traits@D@0@@Z
	??$_Lookup_range@D@std@@YA_NIPEBU?$_Buf@D@0@@Z
	??$_Maklocstr@D@std@@YAPEADPEBDPEADAEBU_Cvtvec@@@Z
	??$_Match@V?$allocator@V?$sub_match@PEBD@std@@@std@@@?$_Matcher@PEBDDV?$regex_traits@D@std@@PEBD@std@@QEAA_NPEAV?$match_results@PEBDV?$allocator@V?$sub_match@PEBD@std@@@std@@@1@_N@Z
	??$_Match@V?$allocator@V?$sub_match@V?$_String_const_iterator@V?$_String_val@U?$_Simple_types@D@std@@@std@@@std@@@std@@@std@@@?$_Matcher@V?$_String_const_iterator@V?$_String_val@U?$_Simple_types@D@std@@@std@@@std@@DV?$regex_traits@D@2@V12@@std@@QEAA_NPEAV?$match_results@V?$_String_const_iterator@V?$_String_val@U?$_Simple_types@D@std@@@std@@@std@@V?$allocator@V?$sub_match@V?$_String_const_iterator@V?$_String_val@U?$_Simple_types@D@std@@@std@@@std@@@std@@@2@@1@_N@Z
	??$_Memcmp_ranges@PEBDPEBD@std@@YAHPEBD00@Z
	??$_Memcmp_ranges@PEBHPEBH@std@@YAHPEBH00@Z
	??$_Move_unchecked@PEAEPEAE@std@@YAPEAEPEAE00@Z
	??$_Reallocate_grow_by@V<lambda_319d5e083f45f90dcdce5dce53cbb275>@@D@?$basic_string@DU?$char_traits@D@std@@V?$allocator@D@2@@std@@AEAAAEAV01@_KV<lambda_319d5e083f45f90dcdce5dce53cbb275>@@D@Z
	??$_Reallocate_grow_by@V<lambda_55b0f89b53a0342680e40398a0d39887>@@_K_KPEBD_K@?$basic_string@DU?$char_traits@D@std@@V?$allocator@D@2@@std@@AEAAAEAV01@_KV<lambda_55b0f89b53a0342680e40398a0d39887>@@_K2PEBD2@Z
	??$_Reallocate_grow_by@V<lambda_65e615be2a453ca0576c979606f46740>@@PEBD_K@?$basic_string@DU?$char_traits@D@std@@V?$allocator@D@2@@std@@AEAAAEAV01@_KV<lambda_65e615be2a453ca0576c979606f46740>@@PEBD_K@Z
	??$_Reallocate_grow_by@V<lambda_9013ee9e23efe4882b67eff5b0ecf103>@@$$V@?$basic_string@DU?$char_traits@D@std@@V?$allocator@D@2@@std@@AEAAAEAV01@_KV<lambda_9013ee9e23efe4882b67eff5b0ecf103>@@@Z
	??$_Reallocate_grow_by@V<lambda_a3050a43f3157934f354774ab3dd2e02>@@_K_W@?$basic_string@_WU?$char_traits@_W@std@@V?$allocator@_W@2@@std@@AEAAAEAV01@_KV<lambda_a3050a43f3157934f354774ab3dd2e02>@@_K_W@Z
	??$_Reallocate_grow_by@V<lambda_e1befb086ad3257e3f042a63030725f7>@@_KD@?$basic_string@DU?$char_traits@D@std@@V?$allocator@D@2@@std@@AEAAAEAV01@_KV<lambda_e1befb086ad3257e3f042a63030725f7>@@_KD@Z
	??$_Reallocate_grow_by@V<lambda_f3a66ab6a0570788f31503db83886f49>@@_KPEBD_K@?$basic_string@DU?$char_traits@D@std@@V?$allocator@D@2@@std@@AEAAAEAV01@_KV<lambda_f3a66ab6a0570788f31503db83886f49>@@_KPEBD2@Z
	??$_Regex_match1@PEBDV?$allocator@V?$sub_match@PEBD@std@@@std@@DV?$regex_traits@D@2@PEBD@std@@YA_NPEBD0PEAV?$match_results@PEBDV?$allocator@V?$sub_match@PEBD@std@@@std@@@0@AEBV?$basic_regex@DV?$regex_traits@D@std@@@0@W4match_flag_type@regex_constants@0@_N@Z
	??$_Regex_search2@V?$_String_const_iterator@V?$_String_val@U?$_Simple_types@D@std@@@std@@@std@@V?$allocator@V?$sub_match@V?$_String_const_iterator@V?$_String_val@U?$_Simple_types@D@std@@@std@@@std@@@std@@@2@DV?$regex_traits@D@2@V12@@std@@YA_NV?$_String_const_iterator@V?$_String_val@U?$_Simple_types@D@std@@@std@@@0@0PEAV?$match_results@V?$_String_const_iterator@V?$_String_val@U?$_Simple_types@D@std@@@std@@@std@@V?$allocator@V?$sub_match@V?$_String_const_iterator@V?$_String_val@U?$_Simple_types@D@std@@@std@@@std@@@std@@@2@@0@AEBV?$basic_regex@DV?$regex_traits@D@std@@@0@W4match_flag_type@regex_constants@0@0@Z
	??$_Reset@PEBD@?$basic_regex@DV?$regex_traits@D@std@@@std@@AEAAXPEBD0W4syntax_option_type@regex_constants@1@Uforward_iterator_tag@1@@Z
	??$_Resize_reallocate@I@?$vector@IV?$allocator@I@std@@@std@@AEAAX_KAEBI@Z
	??$_Resize_reallocate@U_Value_init_tag@std@@@?$vector@EV?$allocator@E@std@@@std@@AEAAX_KAEBU_Value_init_tag@1@@Z
	??$_Resize_reallocate@U_Value_init_tag@std@@@?$vector@U_Grp_t@?$_Tgt_state_t@PEBD@std@@V?$allocator@U_Grp_t@?$_Tgt_state_t@PEBD@std@@@3@@std@@AEAAX_KAEBU_Value_init_tag@1@@Z
	??$_Resize_reallocate@U_Value_init_tag@std@@@?$vector@U_Grp_t@?$_Tgt_state_t@V?$_String_const_iterator@V?$_String_val@U?$_Simple_types@D@std@@@std@@@std@@@std@@V?$allocator@U_Grp_t@?$_Tgt_state_t@V?$_String_const_iterator@V?$_String_val@U?$_Simple_types@D@std@@@std@@@std@@@std@@@3@@std@@AEAAX_KAEBU_Value_init_tag@1@@Z
	??$_Resize_reallocate@U_Value_init_tag@std@@@?$vector@U_Loop_vals_t@std@@V?$allocator@U_Loop_vals_t@std@@@2@@std@@AEAAX_KAEBU_Value_init_tag@1@@Z
	??$_Resize_reallocate@U_Value_init_tag@std@@@?$vector@V?$sub_match@PEBD@std@@V?$allocator@V?$sub_match@PEBD@std@@@2@@std@@AEAAX_KAEBU_Value_init_tag@1@@Z
	??$_Resize_reallocate@U_Value_init_tag@std@@@?$vector@V?$sub_match@V?$_String_const_iterator@V?$_String_val@U?$_Simple_types@D@std@@@std@@@std@@@std@@V?$allocator@V?$sub_match@V?$_String_const_iterator@V?$_String_val@U?$_Simple_types@D@std@@@std@@@std@@@std@@@2@@std@@AEAAX_KAEBU_Value_init_tag@1@@Z
	??$_Stringoid_from_Source@DU?$char_traits@D@std@@V?$allocator@D@2@@filesystem@std@@YA?A_PAEBV?$basic_string@DU?$char_traits@D@std@@V?$allocator@D@2@@1@@Z
	??$_To_absolute_time@_JU?$ratio@$00$0DOI@@std@@@std@@YA?A_PAEBV?$duration@_JU?$ratio@$00$0DOI@@std@@@chrono@0@@Z
	??$_To_xtime_10_day_clamped@_JU?$ratio@$00$0DLJKMKAA@@std@@@std@@YA_NAEAUxtime@@AEBV?$duration@_JU?$ratio@$00$0DLJKMKAA@@std@@@chrono@0@@Z
	??$_Unaligned_load@I@filesystem@std@@YAIPEBX@Z
	??$_Uninitialized_copy@PEAUDevice_Info@@V?$allocator@UDevice_Info@@@std@@@std@@YAPEAUDevice_Info@@QEAU1@0PEAU1@AEAV?$allocator@UDevice_Info@@@0@@Z
	??$_Uninitialized_move@PEAEV?$allocator@E@std@@@std@@YAPEAEQEAE0PEAEAEAV?$allocator@E@0@@Z
	??$_Uninitialized_move@PEAUDevice_Info@@V?$allocator@UDevice_Info@@@std@@@std@@YAPEAUDevice_Info@@QEAU1@0PEAU1@AEAV?$allocator@UDevice_Info@@@0@@Z
	??$_Uninitialized_move@PEAV?$basic_string@DU?$char_traits@D@std@@V?$allocator@D@2@@std@@V?$allocator@V?$basic_string@DU?$char_traits@D@std@@V?$allocator@D@2@@std@@@2@@std@@YAPEAV?$basic_string@DU?$char_traits@D@std@@V?$allocator@D@2@@0@QEAV10@0PEAV10@AEAV?$allocator@V?$basic_string@DU?$char_traits@D@std@@V?$allocator@D@2@@std@@@0@@Z
	??$_Uninitialized_move@PEAV?$vector@UDevice_Info@@V?$allocator@UDevice_Info@@@std@@@std@@V?$allocator@V?$vector@UDevice_Info@@V?$allocator@UDevice_Info@@@std@@@std@@@2@@std@@YAPEAV?$vector@UDevice_Info@@V?$allocator@UDevice_Info@@@std@@@0@QEAV10@0PEAV10@AEAV?$allocator@V?$vector@UDevice_Info@@V?$allocator@UDevice_Info@@@std@@@std@@@0@@Z
	??$_Uninitialized_value_construct_n@V?$allocator@U_Grp_t@?$_Tgt_state_t@PEBD@std@@@std@@@std@@YAPEAU_Grp_t@?$_Tgt_state_t@PEBD@0@PEAU120@_KAEAV?$allocator@U_Grp_t@?$_Tgt_state_t@PEBD@std@@@0@@Z
	??$_Uninitialized_value_construct_n@V?$allocator@U_Loop_vals_t@std@@@std@@@std@@YAPEAU_Loop_vals_t@0@PEAU10@_KAEAV?$allocator@U_Loop_vals_t@std@@@0@@Z
	??$_Zero_range@PEAD@std@@YAPEADQEAD0@Z
	??$_Zero_range@PEAE@std@@YAPEAEQEAE0@Z
	??$alignr@I@@YA?AV?$basic_string@DU?$char_traits@D@std@@V?$allocator@D@2@@std@@II@Z
	??$alignr@_K@@YA?AV?$basic_string@DU?$char_traits@D@std@@V?$allocator@D@2@@std@@I_K@Z
	??$construct@UDevice_Info@@U1@@?$_Default_allocator_traits@V?$allocator@UDevice_Info@@@std@@@std@@SAXAEAV?$allocator@UDevice_Info@@@1@QEAUDevice_Info@@$$QEAU3@@Z
	??$fmax@II$0A@@@YANII@Z
	??$fmax@NI$0A@@@YANNI@Z
	??$getInfo@$0BABP@@Device@cl@@QEBA_KPEAH@Z
	??$getInfoHelper@U?$GetInfoFunctor0@P6AHPEAU_cl_device_id@@I_KPEAXPEA_K@ZPEAU1@@detail@cl@@@detail@cl@@YAHU?$GetInfoFunctor0@P6AHPEAU_cl_device_id@@I_KPEAXPEA_K@ZPEAU1@@01@IPEAV?$basic_string@DU?$char_traits@D@std@@V?$allocator@D@2@@std@@J@Z
	??$getInfoHelper@U?$GetInfoFunctor1@P6AHPEAU_cl_program@@PEAU_cl_device_id@@I_KPEAXPEA_K@ZPEAU1@PEAU2@@detail@cl@@@detail@cl@@YAHU?$GetInfoFunctor1@P6AHPEAU_cl_program@@PEAU_cl_device_id@@I_KPEAXPEA_K@ZPEAU1@PEAU2@@01@IPEAV?$basic_string@DU?$char_traits@D@std@@V?$allocator@D@2@@std@@J@Z
	??$link_parameters@HHHH@Kernel@@AEAAXIAEBH000@Z
	??$link_parameters@MMM@Kernel@@AEAAXIAEBM00@Z
	??$link_parameters@V?$Memory@M@@V1@V1@@Kernel@@AEAAXIAEBV?$Memory@M@@00@Z
	??$link_parameters@V?$Memory@M@@V1@V?$Memory@E@@@Kernel@@AEAAXIAEBV?$Memory@M@@0AEBV?$Memory@E@@@Z
	??$link_parameters@V?$Memory@M@@V?$Memory@H@@V2@@Kernel@@AEAAXIAEBV?$Memory@M@@AEBV?$Memory@H@@1@Z
	??$lookup_classname@PEBD@?$_Regex_traits@D@std@@QEBAFPEBD0_N@Z
	??$make_unique@V?$tuple@P6AXPEAVImage@@AEBV?$basic_string@DU?$char_traits@D@std@@V?$allocator@D@2@@std@@1PEAU?$atomic@H@3@@ZPEAV1@V23@V23@PEAU43@@std@@A6AXPEAVImage@@AEBV?$basic_string@DU?$char_traits@D@std@@V?$allocator@D@2@@2@1PEAU?$atomic@H@2@@ZAEAPEAV3@AEBV42@AEBV42@PEAU52@$0A@@std@@YA?AV?$unique_ptr@V?$tuple@P6AXPEAVImage@@AEBV?$basic_string@DU?$char_traits@D@std@@V?$allocator@D@2@@std@@1PEAU?$atomic@H@3@@ZPEAV1@V23@V23@PEAU43@@std@@U?$default_delete@V?$tuple@P6AXPEAVImage@@AEBV?$basic_string@DU?$char_traits@D@std@@V?$allocator@D@2@@std@@1PEAU?$atomic@H@3@@ZPEAV1@V23@V23@PEAU43@@std@@@2@@0@A6AXPEAVImage@@AEBV?$basic_string@DU?$char_traits@D@std@@V?$allocator@D@2@@0@1PEAU?$atomic@H@0@@ZAEAPEAV2@11$$QEAPEAU40@@Z
	??$make_unique@V?$tuple@P6AXXZ@std@@A6AXXZ$0A@@std@@YA?AV?$unique_ptr@V?$tuple@P6AXXZ@std@@U?$default_delete@V?$tuple@P6AXXZ@std@@@2@@0@A6AXXZ@Z
	??$make_unique@V_Node_assert@std@@W4_Node_type@2@$0A@@std@@YA?AV?$unique_ptr@V_Node_assert@std@@U?$default_delete@V_Node_assert@std@@@2@@0@$$QEAW4_Node_type@0@@Z
	??$println@$$BY0FA@D@@YAXAEAY0FA@$$CBD@Z
	??$println@$$BY0FB@D@@YAXAEAY0FB@$$CBD@Z
	??$regex_match@V?$_String_const_iterator@V?$_String_val@U?$_Simple_types@D@std@@@std@@@std@@DV?$regex_traits@D@2@@std@@YA_NV?$_String_const_iterator@V?$_String_val@U?$_Simple_types@D@std@@@std@@@0@0AEBV?$basic_regex@DV?$regex_traits@D@std@@@0@W4match_flag_type@regex_constants@0@@Z
	??$sleep_for@_JU?$ratio@$00$0DOI@@std@@@this_thread@std@@YAXAEBV?$duration@_JU?$ratio@$00$0DOI@@std@@@chrono@1@@Z
	??$sleep_until@Usteady_clock@chrono@std@@V?$duration@_JU?$ratio@$00$0DLJKMKAA@@std@@@23@@this_thread@std@@YAXAEBV?$time_point@Usteady_clock@chrono@std@@V?$duration@_JU?$ratio@$00$0DLJKMKAA@@std@@@23@@chrono@1@@Z
	??$transform_primary@PEAD@?$_Regex_traits@D@std@@QEBA?AV?$basic_string@DU?$char_traits@D@std@@V?$allocator@D@2@@1@PEAD0@Z
	??$transform_primary@PEBD@?$_Regex_traits@D@std@@QEBA?AV?$basic_string@DU?$char_traits@D@std@@V?$allocator@D@2@@1@PEBD0@Z
	??$transform_primary@V?$_String_iterator@V?$_String_val@U?$_Simple_types@D@std@@@std@@@std@@@?$_Regex_traits@D@std@@QEBA?AV?$basic_string@DU?$char_traits@D@std@@V?$allocator@D@2@@1@V?$_String_iterator@V?$_String_val@U?$_Simple_types@D@std@@@std@@@1@0@Z
	??$use_facet@V?$codecvt@DDU_Mbstatet@@@std@@@std@@YAAEBV?$codecvt@DDU_Mbstatet@@@0@AEBVlocale@0@@Z
	??$use_facet@V?$collate@D@std@@@std@@YAAEBV?$collate@D@0@AEBVlocale@0@@Z
	??$use_facet@V?$ctype@D@std@@@std@@YAAEBV?$ctype@D@0@AEBVlocale@0@@Z
	??0?$Memory@D@@QEAA@AEAVDevice@@_KI_N2D@Z
	??0?$Memory@E@@QEAA@AEAVDevice@@_KI_N2E@Z
	??0?$Memory@G@@QEAA@AEAVDevice@@_KI_N2G@Z
	??0?$Memory@H@@QEAA@AEAVDevice@@_KIQEAH_N@Z
	??0?$Memory@H@@QEAA@AEAVDevice@@_KI_N2H@Z
	??0?$Memory@M@@QEAA@AEAVDevice@@_KI_N2M@Z
	??0?$Memory@Ufloat3@@@@QEAA@AEAVDevice@@_KIQEAUfloat3@@_N@Z
	??0?$Memory_Container@E@LBM@@QEAA@PEAV1@PEAPEAV?$Memory@E@@AEBV?$basic_string@DU?$char_traits@D@std@@V?$allocator@D@2@@std@@@Z
	??0?$Memory_Container@M@LBM@@QEAA@PEAV1@PEAPEAV?$Memory@M@@AEBV?$basic_string@DU?$char_traits@D@std@@V?$allocator@D@2@@std@@@Z
	??0?$_Builder@PEBDDV?$regex_traits@D@std@@@std@@QEAA@AEBV?$regex_traits@D@1@W4syntax_option_type@regex_constants@1@@Z
	??0?$_Matcher@PEBDDV?$regex_traits@D@std@@PEBD@std@@QEAA@PEBD0AEBV?$regex_traits@D@1@PEAV_Root_node@1@IW4syntax_option_type@regex_constants@1@W4match_flag_type@51@@Z
	??0?$_Parser@PEBDDV?$regex_traits@D@std@@@std@@QEAA@AEBV?$regex_traits@D@1@PEBD1W4syntax_option_type@regex_constants@1@@Z
	??0?$_Tgt_state_t@PEBD@std@@QEAA@AEBV01@@Z
	??0?$_Tgt_state_t@V?$_String_const_iterator@V?$_String_val@U?$_Simple_types@D@std@@@std@@@std@@@std@@QEAA@AEBV01@@Z
	??0?$basic_ifstream@DU?$char_traits@D@std@@@std@@QEAA@AEBV?$basic_string@DU?$char_traits@D@std@@V?$allocator@D@2@@1@HH@Z
	??0?$basic_ofstream@DU?$char_traits@D@std@@@std@@QEAA@AEBV?$basic_string@DU?$char_traits@D@std@@V?$allocator@D@2@@1@HH@Z
	??0?$basic_string@DU?$char_traits@D@std@@V?$allocator@D@2@@std@@QEAA@$$QEAV01@@Z
	??0?$basic_string@DU?$char_traits@D@std@@V?$allocator@D@2@@std@@QEAA@AEBV01@@Z
	??0?$basic_string@DU?$char_traits@D@std@@V?$allocator@D@2@@std@@QEAA@QEBD@Z
	??0?$basic_string@DU?$char_traits@D@std@@V?$allocator@D@2@@std@@QEAA@U_String_constructor_concat_tag@1@AEAV01@1@Z
	??0?$basic_string@DU?$char_traits@D@std@@V?$allocator@D@2@@std@@QEAA@U_String_constructor_concat_tag@1@AEBV01@QEBD_K23@Z
	??0?$basic_string@_WU?$char_traits@_W@std@@V?$allocator@_W@2@@std@@QEAA@AEBV01@@Z
	??0?$regex_iterator@V?$_String_const_iterator@V?$_String_val@U?$_Simple_types@D@std@@@std@@@std@@DV?$regex_traits@D@2@@std@@QEAA@AEBV01@@Z
	??0?$regex_token_iterator@V?$_String_const_iterator@V?$_String_val@U?$_Simple_types@D@std@@@std@@@std@@DV?$regex_traits@D@2@@std@@QEAA@AEBV01@@Z
	??0?$vector@V?$basic_string@DU?$char_traits@D@std@@V?$allocator@D@2@@std@@V?$allocator@V?$basic_string@DU?$char_traits@D@std@@V?$allocator@D@2@@std@@@2@@std@@QEAA@V?$initializer_list@V?$basic_string@DU?$char_traits@D@std@@V?$allocator@D@2@@std@@@1@AEBV?$allocator@V?$basic_string@DU?$char_traits@D@std@@V?$allocator@D@2@@std@@@1@@Z
	??0?$vector@_NV?$allocator@_N@std@@@std@@QEAA@AEBV01@@Z
	??0Device@@QEAA@AEBUDevice_Info@@AEBV?$basic_string@DU?$char_traits@D@std@@V?$allocator@D@2@@std@@@Z
	??0Device@cl@@QEAA@AEBV01@@Z
	??0Device_Info@@QEAA@AEBU0@@Z
	??0Device_Info@@QEAA@AEBVDevice@cl@@AEBVContext@2@I@Z
	??0Device_Info@@QEAA@XZ
	??0Graphics@LBM_Domain@@QEAA@PEAV1@@Z
	??0Graphics@LBM_Domain@@QEAA@XZ
	??0Kernel@@QEAA@XZ
	??0LBM@@QEAA@IIIIIIMMMMMMMIM@Z
	??0LBM@@QEAA@IIIMIM@Z
	??0LBM@@QEAA@IIIMMMMIM@Z
	??0LBM@@QEAA@IIIMMMMMMMIM@Z
	??0LBM@@QEAA@Uuint3@@IIIMMMMMMMIM@Z
	??0LBM@@QEAA@Uuint3@@MIM@Z
	??0LBM@@QEAA@Uuint3@@MMMMIM@Z
	??0LBM@@QEAA@Uuint3@@MMMMMMMIM@Z
	??0LBM_Domain@@QEAA@AEBUDevice_Info@@IIIIIIHHHMMMMMMMIM@Z
	??0State@lodepng@@QEAA@AEBV01@@Z
	??0State@lodepng@@QEAA@XZ
	??0_System_error@std@@IEAA@Verror_code@1@AEBV?$basic_string@DU?$char_traits@D@std@@V?$allocator@D@2@@1@@Z
	??0_System_error@std@@QEAA@AEBV01@@Z
	??0bad_alloc@std@@QEAA@AEBV01@@Z
	??0bad_array_new_length@std@@QEAA@AEBV01@@Z
	??0bad_array_new_length@std@@QEAA@XZ
	??0bad_cast@std@@QEAA@AEBV01@@Z
	??0bad_cast@std@@QEAA@XZ
	??0exception@std@@QEAA@AEBV01@@Z
	??0filesystem_error@filesystem@std@@QEAA@AEBV012@@Z
	??0filesystem_error@filesystem@std@@QEAA@AEBV?$basic_string@DU?$char_traits@D@std@@V?$allocator@D@2@@2@AEBVpath@12@Verror_code@2@@Z
	??0runtime_error@std@@QEAA@AEBV01@@Z
	??0system_error@std@@QEAA@AEBV01@@Z
	??0system_error@std@@QEAA@Verror_code@1@@Z
	??0thread@std@@QEAA@XZ
	??1?$Memory@D@@QEAA@XZ
	??1?$Memory@E@@QEAA@XZ
	??1?$Memory@G@@QEAA@XZ
	??1?$Memory@H@@QEAA@XZ
	??1?$Memory@M@@QEAA@XZ
	??1?$Memory@Ufloat3@@@@QEAA@XZ
	??1?$Memory_Container@E@LBM@@QEAA@XZ
	??1?$Memory_Container@M@LBM@@QEAA@XZ
	??1?$_Bt_state_t@PEBD@std@@QEAA@XZ
	??1?$_Bt_state_t@V?$_String_const_iterator@V?$_String_val@U?$_Simple_types@D@std@@@std@@@std@@@std@@QEAA@XZ
	??1?$_Matcher@PEBDDV?$regex_traits@D@std@@PEBD@std@@QEAA@XZ
	??1?$_Matcher@V?$_String_const_iterator@V?$_String_val@U?$_Simple_types@D@std@@@std@@@std@@DV?$regex_traits@D@2@V12@@std@@QEAA@XZ
	??1?$_Parser@PEBDDV?$regex_traits@D@std@@@std@@QEAA@XZ
	??1?$_Tgt_state_t@PEBD@std@@QEAA@XZ
	??1?$_Tgt_state_t@V?$_String_const_iterator@V?$_String_val@U?$_Simple_types@D@std@@@std@@@std@@@std@@QEAA@XZ
	??1?$_Tidy_guard@V?$_Builder@PEBDDV?$regex_traits@D@std@@@std@@@std@@QEAA@XZ
	??1?$_Tidy_guard@V?$vector@UDevice_Info@@V?$allocator@UDevice_Info@@@std@@@std@@@std@@QEAA@XZ
	??1?$_Tidy_guard@V?$vector@V?$basic_string@DU?$char_traits@D@std@@V?$allocator@D@2@@std@@V?$allocator@V?$basic_string@DU?$char_traits@D@std@@V?$allocator@D@2@@std@@@2@@std@@@std@@QEAA@XZ
	??1?$_Uninitialized_backout_al@V?$allocator@UDevice_Info@@@std@@@std@@QEAA@XZ
	??1?$_Uninitialized_backout_al@V?$allocator@V?$basic_string@DU?$char_traits@D@std@@V?$allocator@D@2@@std@@@std@@@std@@QEAA@XZ
	??1?$_Vb_val@V?$allocator@_N@std@@@std@@QEAA@XZ
	??1?$basic_filebuf@DU?$char_traits@D@std@@@std@@UEAA@XZ
	??1?$basic_ifstream@DU?$char_traits@D@std@@@std@@UEAA@XZ
	??1?$basic_ofstream@DU?$char_traits@D@std@@@std@@UEAA@XZ
	??1?$basic_regex@DV?$regex_traits@D@std@@@std@@QEAA@XZ
	??1?$basic_string@DU?$char_traits@D@std@@V?$allocator@D@2@@std@@QEAA@XZ
	??1?$basic_string@_WU?$char_traits@_W@std@@V?$allocator@_W@2@@std@@QEAA@XZ
	??1?$collate@D@std@@MEAA@XZ
	??1?$match_results@V?$_String_const_iterator@V?$_String_val@U?$_Simple_types@D@std@@@std@@@std@@V?$allocator@V?$sub_match@V?$_String_const_iterator@V?$_String_val@U?$_Simple_types@D@std@@@std@@@std@@@std@@@2@@std@@QEAA@XZ
	??1?$regex_iterator@V?$_String_const_iterator@V?$_String_val@U?$_Simple_types@D@std@@@std@@@std@@DV?$regex_traits@D@2@@std@@QEAA@XZ
	??1?$regex_token_iterator@V?$_String_const_iterator@V?$_String_val@U?$_Simple_types@D@std@@@std@@@std@@DV?$regex_traits@D@2@@std@@QEAA@XZ
	??1?$regex_traits@D@std@@QEAA@XZ
	??1?$tuple@V?$basic_string@DU?$char_traits@D@std@@V?$allocator@D@2@@std@@PEAU?$atomic@H@2@@std@@QEAA@XZ
	??1?$tuple@V?$basic_string@DU?$char_traits@D@std@@V?$allocator@D@2@@std@@V12@PEAU?$atomic@H@2@@std@@QEAA@XZ
	??1?$unique_ptr@V?$tuple@P6AXPEAVImage@@AEBV?$basic_string@DU?$char_traits@D@std@@V?$allocator@D@2@@std@@1PEAU?$atomic@H@3@@ZPEAV1@V23@V23@PEAU43@@std@@U?$default_delete@V?$tuple@P6AXPEAVImage@@AEBV?$basic_string@DU?$char_traits@D@std@@V?$allocator@D@2@@std@@1PEAU?$atomic@H@3@@ZPEAV1@V23@V23@PEAU43@@std@@@2@@std@@QEAA@XZ
	??1?$unique_ptr@V_Facet_base@std@@U?$default_delete@V_Facet_base@std@@@2@@std@@QEAA@XZ
	??1?$unique_ptr@V_Node_assert@std@@U?$default_delete@V_Node_assert@std@@@2@@std@@QEAA@XZ
	??1?$vector@DV?$allocator@D@std@@@std@@QEAA@XZ
	??1?$vector@EV?$allocator@E@std@@@std@@QEAA@XZ
	??1?$vector@HV?$allocator@H@std@@@std@@QEAA@XZ
	??1?$vector@U?$pair@PEBD_K@std@@V?$allocator@U?$pair@PEBD_K@std@@@2@@std@@QEAA@XZ
	??1?$vector@UDevice_Info@@V?$allocator@UDevice_Info@@@std@@@std@@QEAA@XZ
	??1?$vector@U_Loop_vals_t@std@@V?$allocator@U_Loop_vals_t@std@@@2@@std@@QEAA@XZ
	??1?$vector@V?$basic_string@DU?$char_traits@D@std@@V?$allocator@D@2@@std@@V?$allocator@V?$basic_string@DU?$char_traits@D@std@@V?$allocator@D@2@@std@@@2@@std@@QEAA@XZ
	??1?$vector@V?$vector@UDevice_Info@@V?$allocator@UDevice_Info@@@std@@@std@@V?$allocator@V?$vector@UDevice_Info@@V?$allocator@UDevice_Info@@@std@@@std@@@2@@std@@QEAA@XZ
	??1?$vector@VDevice@cl@@V?$allocator@VDevice@cl@@@std@@@std@@QEAA@XZ
	??1?$vector@VPlatform@cl@@V?$allocator@VPlatform@cl@@@std@@@std@@QEAA@XZ
	??1?$vector@_NV?$allocator@_N@std@@@std@@QEAA@XZ
	??1Buffer@cl@@QEAA@XZ
	??1CommandQueue@cl@@QEAA@XZ
	??1Context@cl@@QEAA@XZ
	??1Device@@QEAA@XZ
	??1Device@cl@@QEAA@XZ
	??1Device_Info@@QEAA@XZ
	??1Graphics@LBM@@QEAA@XZ
	??1Graphics@LBM_Domain@@QEAA@XZ
	??1Kernel@@QEAA@XZ
	??1Kernel@cl@@QEAA@XZ
	??1LBM@@QEAA@XZ
	??1LBM_Domain@@QEAA@XZ
	??1Program@cl@@QEAA@XZ
	??1State@lodepng@@QEAA@XZ
	??1_Node_base@std@@UEAA@XZ
	??1_Sentry_base@?$basic_ostream@DU?$char_traits@D@std@@@std@@QEAA@XZ
	??1_System_error_message@std@@QEAA@XZ
	??1bad_array_new_length@std@@UEAA@XZ
	??1bad_cast@std@@UEAA@XZ
	??1error_category@std@@UEAA@XZ
	??1exception@std@@UEAA@XZ
	??1filesystem_error@filesystem@std@@UEAA@XZ
	??1locale@std@@QEAA@XZ
	??1path@filesystem@std@@QEAA@XZ
	??1sentry@?$basic_ostream@DU?$char_traits@D@std@@@std@@QEAA@XZ
	??1system_error@std@@UEAA@XZ
	??1thread@std@@QEAA@XZ
	??4?$Memory@D@@QEAAAEAV0@$$QEAV0@@Z
	??4?$Memory@H@@QEAAAEAV0@$$QEAV0@@Z
	??4?$Memory@M@@QEAAAEAV0@$$QEAV0@@Z
	??4?$Memory_Container@M@LBM@@QEAAAEAV01@$$QEAV01@@Z
	??4?$_Tgt_state_t@PEBD@std@@QEAAAEAV01@AEBV01@@Z
	??4?$_Tgt_state_t@V?$_String_const_iterator@V?$_String_val@U?$_Simple_types@D@std@@@std@@@std@@@std@@QEAAAEAV01@AEBV01@@Z
	??4?$atomic@_N@std@@QEAA_N_N@Z
	??4?$basic_string@DU?$char_traits@D@std@@V?$allocator@D@2@@std@@QEAAAEAV01@$$QEAV01@@Z
	??4?$vector@_NV?$allocator@_N@std@@@std@@QEAAAEAV01@AEBV01@@Z
	??4Device_Info@@QEAAAEAU0@$$QEAU0@@Z
	??4Device_Info@@QEAAAEAU0@AEBU0@@Z
	??4Kernel@@QEAAAEAV0@$$QEAV0@@Z
	??4State@lodepng@@QEAAAEAV01@AEBV01@@Z
	??A?$basic_string@DU?$char_traits@D@std@@V?$allocator@D@2@@std@@QEAAAEAD_K@Z
	??APointer@?$Memory_Container@M@LBM@@QEAAAEAM_K@Z
	??E?$regex_iterator@V?$_String_const_iterator@V?$_String_val@U?$_Simple_types@D@std@@@std@@@std@@DV?$regex_traits@D@2@@std@@QEAAAEAV01@XZ
	??H?$_Vb_iterator@U?$_Wrap_alloc@V?$allocator@I@std@@@std@@@std@@QEBA?AV01@_J@Z
	??Y?$basic_string@DU?$char_traits@D@std@@V?$allocator@D@2@@std@@QEAAAEAV01@AEBV01@@Z
	??Y?$basic_string@DU?$char_traits@D@std@@V?$allocator@D@2@@std@@QEAAAEAV01@QEBD@Z
	??_D?$basic_ifstream@DU?$char_traits@D@std@@@std@@QEAAXXZ
	??_D?$basic_ofstream@DU?$char_traits@D@std@@@std@@QEAAXXZ
	?WndProc@@YA_JPEAUHWND__@@I_K_J@Z
	?_Add_backreference@?$_Builder@PEBDDV?$regex_traits@D@std@@@std@@QEAAXI@Z
	?_Add_bol@?$_Builder@PEBDDV?$regex_traits@D@std@@@std@@QEAAXXZ
	?_Add_char@?$_Builder@PEBDDV?$regex_traits@D@std@@@std@@QEAAXD@Z
	?_Add_char_to_array@?$_Builder@PEBDDV?$regex_traits@D@std@@@std@@AEAAXD@Z
	?_Add_char_to_bitmap@?$_Builder@PEBDDV?$regex_traits@D@std@@@std@@AEAAXD@Z
	?_Add_char_to_class@?$_Builder@PEBDDV?$regex_traits@D@std@@@std@@QEAAXD@Z
	?_Add_class@?$_Builder@PEBDDV?$regex_traits@D@std@@@std@@QEAAXXZ
	?_Add_coll@?$_Builder@PEBDDV?$regex_traits@D@std@@@std@@QEAAXPEBD0_J@Z
	?_Add_dot@?$_Builder@PEBDDV?$regex_traits@D@std@@@std@@QEAAXXZ
	?_Add_elts@?$_Builder@PEBDDV?$regex_traits@D@std@@@std@@AEAAXPEAV?$_Node_class@DV?$regex_traits@D@std@@@2@F_N@Z
	?_Add_eol@?$_Builder@PEBDDV?$regex_traits@D@std@@@std@@QEAAXXZ
	?_Add_equiv@?$_Builder@PEBDDV?$regex_traits@D@std@@@std@@QEAAXPEBD0_J@Z
	?_Add_named_class@?$_Builder@PEBDDV?$regex_traits@D@std@@@std@@QEAAXF_N@Z
	?_Add_range@?$_Builder@PEBDDV?$regex_traits@D@std@@@std@@QEAAXDD@Z
	?_Add_rep@?$_Builder@PEBDDV?$regex_traits@D@std@@@std@@QEAAXHH_N@Z
	?_Add_str_node@?$_Builder@PEBDDV?$regex_traits@D@std@@@std@@AEAAXXZ
	?_Add_wbound@?$_Builder@PEBDDV?$regex_traits@D@std@@@std@@QEAAXXZ
	?_Alternative@?$_Parser@PEBDDV?$regex_traits@D@std@@@std@@AEAA_NXZ
	?_AtomEscape@?$_Parser@PEBDDV?$regex_traits@D@std@@@std@@AEAAXXZ
	?_Beg_expr@?$_Builder@PEBDDV?$regex_traits@D@std@@@std@@AEBA_NPEAV_Node_base@2@@Z
	?_Beg_expr@?$_Builder@PEBDDV?$regex_traits@D@std@@@std@@QEBA_NXZ
	?_Begin_assert_group@?$_Builder@PEBDDV?$regex_traits@D@std@@@std@@QEAAPEAV_Node_base@2@_N@Z
	?_Begin_capture_group@?$_Builder@PEBDDV?$regex_traits@D@std@@@std@@QEAAPEAV_Node_base@2@I@Z
	?_Begin_group@?$_Builder@PEBDDV?$regex_traits@D@std@@@std@@QEAAPEAV_Node_base@2@XZ
	?_Begin_if@?$_Builder@PEBDDV?$regex_traits@D@std@@@std@@QEAAPEAV_Node_base@2@PEAV32@@Z
	?_Better_match@?$_Matcher@PEBDDV?$regex_traits@D@std@@PEBD@std@@AEAA_NXZ
	?_Better_match@?$_Matcher@V?$_String_const_iterator@V?$_String_val@U?$_Simple_types@D@std@@@std@@@std@@DV?$regex_traits@D@2@V12@@std@@AEAA_NXZ
	?_Buy_raw@?$vector@VDevice@cl@@V?$allocator@VDevice@cl@@@std@@@std@@AEAAX_K@Z
	?_Calculate_loop_simplicity@std@@YAXPEAV_Node_base@1@0PEAV_Node_rep@1@@Z
	?_Change_array@?$vector@EV?$allocator@E@std@@@std@@AEAAXQEAE_K1@Z
	?_Change_array@?$vector@UDevice_Info@@V?$allocator@UDevice_Info@@@std@@@std@@AEAAXQEAUDevice_Info@@_K1@Z
	?_Char_to_elts@?$_Builder@PEBDDV?$regex_traits@D@std@@@std@@AEAAXPEBD0_JPEAPEAU?$_Sequence@D@2@@Z
	?_CharacterClass@?$_Parser@PEBDDV?$regex_traits@D@std@@@std@@AEAAXXZ
	?_CharacterClassEscape@?$_Parser@PEBDDV?$regex_traits@D@std@@@std@@AEAA_N_N@Z
	?_CharacterEscape@?$_Parser@PEBDDV?$regex_traits@D@std@@@std@@AEAA_NXZ
	?_ClassAtom@?$_Parser@PEBDDV?$regex_traits@D@std@@@std@@AEAA?AW4_Prs_ret@2@XZ
	?_ClassEscape@?$_Parser@PEBDDV?$regex_traits@D@std@@@std@@AEAA?AW4_Prs_ret@2@_N@Z
	?_ClassRanges@?$_Parser@PEBDDV?$regex_traits@D@std@@@std@@AEAAXXZ
	?_Clear_and_reserve_geometric@?$vector@IV?$allocator@I@std@@@std@@AEAAX_K@Z
	?_Clear_and_reserve_geometric@?$vector@U_Grp_t@?$_Tgt_state_t@PEBD@std@@V?$allocator@U_Grp_t@?$_Tgt_state_t@PEBD@std@@@3@@std@@AEAAX_K@Z
	?_Clear_and_reserve_geometric@?$vector@U_Grp_t@?$_Tgt_state_t@V?$_String_const_iterator@V?$_String_val@U?$_Simple_types@D@std@@@std@@@std@@@std@@V?$allocator@U_Grp_t@?$_Tgt_state_t@V?$_String_const_iterator@V?$_String_val@U?$_Simple_types@D@std@@@std@@@std@@@std@@@3@@std@@AEAAX_K@Z
	?_Compile@?$_Parser@PEBDDV?$regex_traits@D@std@@@std@@QEAAPEAV_Root_node@2@XZ
	?_Current@?$regex_token_iterator@V?$_String_const_iterator@V?$_String_val@U?$_Simple_types@D@std@@@std@@@std@@DV?$regex_traits@D@2@@std@@AEBAPEBV?$sub_match@V?$_String_const_iterator@V?$_String_val@U?$_Simple_types@D@std@@@std@@@std@@@2@XZ
	?_DecimalDigits@?$_Parser@PEBDDV?$regex_traits@D@std@@@std@@AEAA_NXZ
	?_Disjunction@?$_Parser@PEBDDV?$regex_traits@D@std@@@std@@AEAAXXZ
	?_Do_assert_group@?$_Parser@PEBDDV?$regex_traits@D@std@@@std@@AEAAX_N@Z
	?_Do_capture_group@?$_Parser@PEBDDV?$regex_traits@D@std@@@std@@AEAAXXZ
	?_Do_class@?$_Matcher@PEBDDV?$regex_traits@D@std@@PEBD@std@@AEAA_NPEAV_Node_base@2@@Z
	?_Do_class@?$_Matcher@V?$_String_const_iterator@V?$_String_val@U?$_Simple_types@D@std@@@std@@@std@@DV?$regex_traits@D@2@V12@@std@@AEAA_NPEAV_Node_base@2@@Z
	?_Do_digits@?$_Parser@PEBDDV?$regex_traits@D@std@@@std@@AEAAHHH@Z
	?_Do_ex_class@?$_Parser@PEBDDV?$regex_traits@D@std@@@std@@AEAAXW4_Meta_type@2@@Z
	?_Do_ffn@?$_Parser@PEBDDV?$regex_traits@D@std@@@std@@AEAA_ND@Z
	?_Do_ffnx@?$_Parser@PEBDDV?$regex_traits@D@std@@@std@@AEAA_ND@Z
	?_Do_if@?$_Matcher@PEBDDV?$regex_traits@D@std@@PEBD@std@@AEAA_NPEAV_Node_if@2@@Z
	?_Do_if@?$_Matcher@V?$_String_const_iterator@V?$_String_val@U?$_Simple_types@D@std@@@std@@@std@@DV?$regex_traits@D@2@V12@@std@@AEAA_NPEAV_Node_if@2@@Z
	?_Do_noncapture_group@?$_Parser@PEBDDV?$regex_traits@D@std@@@std@@AEAAXXZ
	?_Do_rep0@?$_Matcher@PEBDDV?$regex_traits@D@std@@PEBD@std@@AEAA_NPEAV_Node_rep@2@_N@Z
	?_Do_rep0@?$_Matcher@V?$_String_const_iterator@V?$_String_val@U?$_Simple_types@D@std@@@std@@@std@@DV?$regex_traits@D@2@V12@@std@@AEAA_NPEAV_Node_rep@2@_N@Z
	?_Do_rep@?$_Matcher@PEBDDV?$regex_traits@D@std@@PEBD@std@@AEAA_NPEAV_Node_rep@2@_NH@Z
	?_Do_rep@?$_Matcher@V?$_String_const_iterator@V?$_String_val@U?$_Simple_types@D@std@@@std@@@std@@DV?$regex_traits@D@2@V12@@std@@AEAA_NPEAV_Node_rep@2@_NH@Z
	?_Else_if@?$_Builder@PEBDDV?$regex_traits@D@std@@@std@@QEAAXPEAV_Node_base@2@0@Z
	?_End_assert_group@?$_Builder@PEBDDV?$regex_traits@D@std@@@std@@QEAAXPEAV_Node_base@2@@Z
	?_End_group@?$_Builder@PEBDDV?$regex_traits@D@std@@@std@@QEAAXPEAV_Node_base@2@@Z
	?_End_pattern@?$_Builder@PEBDDV?$regex_traits@D@std@@@std@@QEAAPEAV_Root_node@2@XZ
	?_Endwrite@?$basic_filebuf@DU?$char_traits@D@std@@@std@@IEAA_NXZ
	?_Error@?$_Parser@PEBDDV?$regex_traits@D@std@@@std@@AEAAXW4error_type@regex_constants@2@@Z
	?_Expect@?$_Parser@PEBDDV?$regex_traits@D@std@@@std@@AEAAXW4_Meta_type@2@W4error_type@regex_constants@2@@Z
	?_Find_root_name_end@filesystem@std@@YAPEB_WQEB_W0@Z
	?_Get_bmax@?$_Builder@PEBDDV?$regex_traits@D@std@@@std@@AEBAIXZ
	?_Get_ncap@?$_Matcher@PEBDDV?$regex_traits@D@std@@PEBD@std@@AEBAIXZ
	?_Get_ncap@?$_Matcher@V?$_String_const_iterator@V?$_String_val@U?$_Simple_types@D@std@@@std@@@std@@DV?$regex_traits@D@2@V12@@std@@AEBAIXZ
	?_Get_tmax@?$_Builder@PEBDDV?$regex_traits@D@std@@@std@@AEBAIXZ
	?_Getmark@?$_Builder@PEBDDV?$regex_traits@D@std@@@std@@QEBAPEAV_Node_base@2@XZ
	?_HexDigits@?$_Parser@PEBDDV?$regex_traits@D@std@@@std@@AEAAXH@Z
	?_IdentityEscape@?$_Parser@PEBDDV?$regex_traits@D@std@@@std@@AEAA_NXZ
	?_Insert_node@?$_Builder@PEBDDV?$regex_traits@D@std@@@std@@CAXPEAV_Node_base@2@0@Z
	?_Insert_x@?$vector@_NV?$allocator@_N@std@@@std@@QEAA_KV?$_Vb_const_iterator@U?$_Wrap_alloc@V?$allocator@I@std@@@std@@@2@_K@Z
	?_IsIdentityEscape@?$_Parser@PEBDDV?$regex_traits@D@std@@@std@@AEBA_NXZ
	?_Is_esc@?$_Parser@PEBDDV?$regex_traits@D@std@@@std@@AEBA_NXZ
	?_Is_wbound@?$_Matcher@PEBDDV?$regex_traits@D@std@@PEBD@std@@AEBA_NXZ
	?_Is_wbound@?$_Matcher@V?$_String_const_iterator@V?$_String_val@U?$_Simple_types@D@std@@@std@@@std@@DV?$regex_traits@D@2@V12@@std@@AEBA_NXZ
	?_Link_node@?$_Builder@PEBDDV?$regex_traits@D@std@@@std@@AEAAPEAV_Node_base@2@PEAV32@@Z
	?_Lock@?$basic_filebuf@DU?$char_traits@D@std@@@std@@UEAAXXZ
	?_Make_ec@filesystem@std@@YA?AVerror_code@2@W4__std_win_error@@@Z
	?_Maklocwcs@std@@YAPEA_WPEB_W@Z
	?_Mark_final@?$_Builder@PEBDDV?$regex_traits@D@std@@@std@@QEAAXXZ
	?_Match_pat@?$_Matcher@PEBDDV?$regex_traits@D@std@@PEBD@std@@AEAA_NPEAV_Node_base@2@@Z
	?_Match_pat@?$_Matcher@V?$_String_const_iterator@V?$_String_val@U?$_Simple_types@D@std@@@std@@@std@@DV?$regex_traits@D@2@V12@@std@@AEAA_NPEAV_Node_base@2@@Z
	?_Negate@?$_Builder@PEBDDV?$regex_traits@D@std@@@std@@QEAAXXZ
	?_New_node@?$_Builder@PEBDDV?$regex_traits@D@std@@@std@@AEAAPEAV_Node_base@2@W4_Node_type@2@@Z
	?_Next@?$_Parser@PEBDDV?$regex_traits@D@std@@@std@@AEAAXXZ
	?_OctalDigits@?$_Parser@PEBDDV?$regex_traits@D@std@@@std@@AEAA_NXZ
	?_Pretty_message@filesystem_error@filesystem@std@@CA?AV?$basic_string@DU?$char_traits@D@std@@V?$allocator@D@2@@3@V?$basic_string_view@DU?$char_traits@D@std@@@3@AEBVpath@23@1@Z
	?_Quantifier@?$_Parser@PEBDDV?$regex_traits@D@std@@@std@@AEAAXXZ
	?_Reset_back@?$basic_filebuf@DU?$char_traits@D@std@@@std@@AEAAXXZ
	?_Resize@?$match_results@PEBDV?$allocator@V?$sub_match@PEBD@std@@@std@@@std@@QEAAXI@Z
	?_Resize@?$match_results@V?$_String_const_iterator@V?$_String_val@U?$_Simple_types@D@std@@@std@@@std@@V?$allocator@V?$sub_match@V?$_String_const_iterator@V?$_String_val@U?$_Simple_types@D@std@@@std@@@std@@@std@@@2@@std@@QEAAXI@Z
	?_Setlong@?$_Builder@PEBDDV?$regex_traits@D@std@@@std@@QEAAXXZ
	?_Skip@?$_Matcher@V?$_String_const_iterator@V?$_String_val@U?$_Simple_types@D@std@@@std@@@std@@DV?$regex_traits@D@2@V12@@std@@QEAA?AV?$_String_const_iterator@V?$_String_val@U?$_Simple_types@D@std@@@std@@@2@V32@0PEAV_Node_base@2@@Z
	?_Throw_bad_array_new_length@std@@YAXXZ
	?_Throw_bad_cast@std@@YAXXZ
	?_Throw_fs_error@filesystem@std@@YAXPEBDAEBVerror_code@2@AEBVpath@12@@Z
	?_Throw_fs_error@filesystem@std@@YAXPEBDW4__std_win_error@@AEBVpath@12@@Z
	?_Throw_system_error@std@@YAXW4errc@1@@Z
	?_Throw_system_error_from_std_win_error@filesystem@std@@YAXW4__std_win_error@@@Z
	?_Tidy@?$_Builder@PEBDDV?$regex_traits@D@std@@@std@@QEAAXXZ
	?_Tidy@?$basic_regex@DV?$regex_traits@D@std@@@std@@AEAAXXZ
	?_Tidy@?$vector@UDevice_Info@@V?$allocator@UDevice_Info@@@std@@@std@@AEAAXXZ
	?_Tidy@?$vector@V?$basic_string@DU?$char_traits@D@std@@V?$allocator@D@2@@std@@V?$allocator@V?$basic_string@DU?$char_traits@D@std@@V?$allocator@D@2@@std@@@2@@std@@AEAAXXZ
	?_Tidy@?$vector@V?$sub_match@V?$_String_const_iterator@V?$_String_val@U?$_Simple_types@D@std@@@std@@@std@@@std@@V?$allocator@V?$sub_match@V?$_String_const_iterator@V?$_String_val@U?$_Simple_types@D@std@@@std@@@std@@@std@@@2@@std@@AEAAXXZ
	?_Tidy@?$vector@VDevice@cl@@V?$allocator@VDevice@cl@@@std@@@std@@AEAAXXZ
	?_Tidy_deallocate@?$basic_string@DU?$char_traits@D@std@@V?$allocator@D@2@@std@@AEAAXXZ
	?_Tidy_deallocate@?$basic_string@_WU?$char_traits@_W@std@@V?$allocator@_W@2@@std@@AEAAXXZ
	?_Trans@?$_Parser@PEBDDV?$regex_traits@D@std@@@std@@AEAAXXZ
	?_Trim@?$vector@_NV?$allocator@_N@std@@@std@@QEAAX_K@Z
	?_Unlock@?$basic_filebuf@DU?$char_traits@D@std@@@std@@UEAAXXZ
	?_Wrapped_disjunction@?$_Parser@PEBDDV?$regex_traits@D@std@@@std@@AEAA_NXZ
	?_Xlen@?$vector@_NV?$allocator@_N@std@@@std@@QEBAXXZ
	?_Xlen_string@std@@YAXXZ
	?_Xlength@?$vector@DV?$allocator@D@std@@@std@@CAXXZ
	?_Xlength@?$vector@EV?$allocator@E@std@@@std@@CAXXZ
	?_Xlength@?$vector@HV?$allocator@H@std@@@std@@CAXXZ
	?_Xlength@?$vector@IV?$allocator@I@std@@@std@@CAXXZ
	?_Xlength@?$vector@U?$pair@PEBD_K@std@@V?$allocator@U?$pair@PEBD_K@std@@@2@@std@@CAXXZ
	?_Xlength@?$vector@UDevice_Info@@V?$allocator@UDevice_Info@@@std@@@std@@CAXXZ
	?_Xlength@?$vector@U_Grp_t@?$_Tgt_state_t@PEBD@std@@V?$allocator@U_Grp_t@?$_Tgt_state_t@PEBD@std@@@3@@std@@CAXXZ
	?_Xlength@?$vector@U_Grp_t@?$_Tgt_state_t@V?$_String_const_iterator@V?$_String_val@U?$_Simple_types@D@std@@@std@@@std@@@std@@V?$allocator@U_Grp_t@?$_Tgt_state_t@V?$_String_const_iterator@V?$_String_val@U?$_Simple_types@D@std@@@std@@@std@@@std@@@3@@std@@CAXXZ
	?_Xlength@?$vector@U_Loop_vals_t@std@@V?$allocator@U_Loop_vals_t@std@@@2@@std@@CAXXZ
	?_Xlength@?$vector@V?$basic_string@DU?$char_traits@D@std@@V?$allocator@D@2@@std@@V?$allocator@V?$basic_string@DU?$char_traits@D@std@@V?$allocator@D@2@@std@@@2@@std@@CAXXZ
	?_Xlength@?$vector@V?$sub_match@PEBD@std@@V?$allocator@V?$sub_match@PEBD@std@@@2@@std@@CAXXZ
	?_Xlength@?$vector@V?$sub_match@V?$_String_const_iterator@V?$_String_val@U?$_Simple_types@D@std@@@std@@@std@@@std@@V?$allocator@V?$sub_match@V?$_String_const_iterator@V?$_String_val@U?$_Simple_types@D@std@@@std@@@std@@@std@@@2@@std@@CAXXZ
	?_Xlength@?$vector@V?$vector@UDevice_Info@@V?$allocator@UDevice_Info@@@std@@@std@@V?$allocator@V?$vector@UDevice_Info@@V?$allocator@UDevice_Info@@@std@@@std@@@2@@std@@CAXXZ
	?_Xlength@?$vector@VDevice@cl@@V?$allocator@VDevice@cl@@@std@@@std@@CAXXZ
	?_Xlength@?$vector@VPlatform@cl@@V?$allocator@VPlatform@cl@@@std@@@std@@CAXXZ
	?_Xran@?$_String_val@U?$_Simple_types@D@std@@@std@@SAXXZ
	?_Xrange@?$vector@V?$basic_string@DU?$char_traits@D@std@@V?$allocator@D@2@@std@@V?$allocator@V?$basic_string@DU?$char_traits@D@std@@V?$allocator@D@2@@std@@@2@@std@@CAXXZ
	?alignl@@YA?AV?$basic_string@DU?$char_traits@D@std@@V?$allocator@D@2@@std@@IAEBV12@@Z
	?alignr@@YA?AV?$basic_string@DU?$char_traits@D@std@@V?$allocator@D@2@@std@@IAEBV12@@Z
	?allocate@?$allocator@D@std@@QEAAPEAD_K@Z
	?allocate@?$allocator@E@std@@QEAAPEAE_K@Z
	?allocate@?$allocator@H@std@@QEAAPEAH_K@Z
	?allocate@?$allocator@I@std@@QEAAPEAI_K@Z
	?allocate@?$allocator@UDevice_Info@@@std@@QEAAPEAUDevice_Info@@_K@Z
	?allocate@?$allocator@U_Grp_t@?$_Tgt_state_t@PEBD@std@@@std@@QEAAPEAU_Grp_t@?$_Tgt_state_t@PEBD@2@_K@Z
	?allocate@?$allocator@U_Grp_t@?$_Tgt_state_t@V?$_String_const_iterator@V?$_String_val@U?$_Simple_types@D@std@@@std@@@std@@@std@@@std@@QEAAPEAU_Grp_t@?$_Tgt_state_t@V?$_String_const_iterator@V?$_String_val@U?$_Simple_types@D@std@@@std@@@std@@@2@_K@Z
	?allocate@?$allocator@V?$basic_string@DU?$char_traits@D@std@@V?$allocator@D@2@@std@@@std@@QEAAPEAV?$basic_string@DU?$char_traits@D@std@@V?$allocator@D@2@@2@_K@Z
	?allocate@?$allocator@V?$sub_match@V?$_String_const_iterator@V?$_String_val@U?$_Simple_types@D@std@@@std@@@std@@@std@@@std@@QEAAPEAV?$sub_match@V?$_String_const_iterator@V?$_String_val@U?$_Simple_types@D@std@@@std@@@std@@@2@_K@Z
	?allocate@?$allocator@_W@std@@QEAAPEA_W_K@Z
	?allocate@Graphics@LBM_Domain@@QEAAXAEAVDevice@@@Z
	?allocate@LBM_Domain@@AEAAXAEAVDevice@@@Z
	?allocate_device_buffer@?$Memory@D@@AEAAXAEAVDevice@@_N@Z
	?allocate_device_buffer@?$Memory@E@@AEAAXAEAVDevice@@_N@Z
	?allocate_device_buffer@?$Memory@G@@AEAAXAEAVDevice@@_N@Z
	?allocate_device_buffer@?$Memory@H@@AEAAXAEAVDevice@@_N@Z
	?allocate_device_buffer@?$Memory@M@@AEAAXAEAVDevice@@_N@Z
	?allocate_device_buffer@?$Memory@Ufloat3@@@@AEAAXAEAVDevice@@_N@Z
	?allocate_transfer@LBM_Domain@@QEAAXAEAVDevice@@@Z
	?append@?$basic_string@DU?$char_traits@D@std@@V?$allocator@D@2@@std@@QEAAAEAV12@QEBD_K@Z
	?append@?$basic_string@_WU?$char_traits@_W@std@@V?$allocator@_W@2@@std@@QEAAAEAV12@QEB_W_K@Z
	?append@Info@@QEAAX_K0@Z
	?assign@?$basic_string@DU?$char_traits@D@std@@V?$allocator@D@2@@std@@QEAAAEAV12@QEBD@Z
	?assign@?$basic_string@DU?$char_traits@D@std@@V?$allocator@D@2@@std@@QEAAAEAV12@QEBD_K@Z
	?assign@?$basic_string@_WU?$char_traits@_W@std@@V?$allocator@_W@2@@std@@QEAAAEAV12@QEB_W_K@Z
	?bandwidth_bytes_per_cell_device@@YAIXZ
	?bytes_per_cell_device@@YAIXZ
	?bytes_per_cell_host@@YAIXZ
	?capacity@?$Memory@D@@QEBA?B_KXZ
	?capacity@?$Memory@E@@QEBA?B_KXZ
	?capacity@?$Memory@G@@QEBA?B_KXZ
	?capacity@?$Memory@H@@QEBA?B_KXZ
	?capacity@?$Memory@M@@QEBA?B_KXZ
	?capacity@?$Memory@Ufloat3@@@@QEBA?B_KXZ
	?cbrt@@YAMM@Z
	?close@?$basic_filebuf@DU?$char_traits@D@std@@@std@@QEAAPEAV12@XZ
	?color_mix_3@@YAHHHHMMM@Z
	?communicate_fi@LBM@@AEAAXXZ
	?communicate_field@LBM@@AEAAXW4enum_transfer_field@@I@Z
	?communicate_flags@LBM@@AEAAXXZ
	?communicate_phi_massex_flags@LBM@@AEAAXXZ
	?communicate_rho_u_flags@LBM@@AEAAXXZ
	?compress@lodepng@@YAIAEAV?$vector@EV?$allocator@E@std@@@std@@AEBV23@AEBULodePNGCompressSettings@@@Z
	?compress@lodepng@@YAIAEAV?$vector@EV?$allocator@E@std@@@std@@PEBE_KAEBULodePNGCompressSettings@@@Z
	?cone@@YA_NIIIAEBUfloat3@@0MM@Z
	?conepipe@@YA_NIIIAEBUfloat3@@0MM@Z
	?contains_any@@YA_NAEBV?$basic_string@DU?$char_traits@D@std@@V?$allocator@D@2@@std@@AEBV?$vector@V?$basic_string@DU?$char_traits@D@std@@V?$allocator@D@2@@std@@V?$allocator@V?$basic_string@DU?$char_traits@D@std@@V?$allocator@D@2@@std@@@2@@2@@Z
	?convert@@YA_NAEAH0AEAMAEBUfloat3@@H@Z
	?convert_circle@@YAXAEBUfloat3@@MHH@Z
	?convert_line@@YAXAEBUfloat3@@0HH@Z
	?convert_pixel@@YAXAEBUfloat3@@HH@Z
	?convert_text@@YAXAEBUfloat3@@AEBV?$basic_string@DU?$char_traits@D@std@@V?$allocator@D@2@@std@@MHH@Z
	?convert_triangle@@YAXAEBUfloat3@@00HH@Z
	?convert_triangle_interpolated@@YAXAEBUfloat3@@00HHHH@Z
	?create_directories@filesystem@std@@YA_NAEBVpath@12@AEAVerror_code@2@@Z
	?create_file_extension@@YA?AV?$basic_string@DU?$char_traits@D@std@@V?$allocator@D@2@@std@@AEBV12@0@Z
	?create_folder@@YAXAEBV?$basic_string@DU?$char_traits@D@std@@V?$allocator@D@2@@std@@@Z
	?cube@@YA_NIIIAEBUfloat3@@M@Z
	?cuboid@@YA_NIIIAEBUfloat3@@0@Z
	?cylinder@@YA_NIIIAEBUfloat3@@0M@Z
	?cylinder_x_plic@@YAMIIIAEBUfloat3@@MM@Z
	?cylinder_y_plic@@YAMIIIAEBUfloat3@@MM@Z
	?cylinder_z_plic@@YAMIIIAEBUfloat3@@MM@Z
	?deallocate@?$allocator@D@std@@QEAAXQEAD_K@Z
	?deallocate@?$allocator@E@std@@QEAAXQEAE_K@Z
	?deallocate@?$allocator@H@std@@QEAAXQEAH_K@Z
	?deallocate@?$allocator@I@std@@QEAAXQEAI_K@Z
	?deallocate@?$allocator@U?$pair@PEBD_K@std@@@std@@QEAAXQEAU?$pair@PEBD_K@2@_K@Z
	?deallocate@?$allocator@UDevice_Info@@@std@@QEAAXQEAUDevice_Info@@_K@Z
	?deallocate@?$allocator@U_Grp_t@?$_Tgt_state_t@PEBD@std@@@std@@QEAAXQEAU_Grp_t@?$_Tgt_state_t@PEBD@2@_K@Z
	?deallocate@?$allocator@U_Grp_t@?$_Tgt_state_t@V?$_String_const_iterator@V?$_String_val@U?$_Simple_types@D@std@@@std@@@std@@@std@@@std@@QEAAXQEAU_Grp_t@?$_Tgt_state_t@V?$_String_const_iterator@V?$_String_val@U?$_Simple_types@D@std@@@std@@@std@@@2@_K@Z
	?deallocate@?$allocator@U_Loop_vals_t@std@@@std@@QEAAXQEAU_Loop_vals_t@2@_K@Z
	?deallocate@?$allocator@V?$basic_string@DU?$char_traits@D@std@@V?$allocator@D@2@@std@@@std@@QEAAXQEAV?$basic_string@DU?$char_traits@D@std@@V?$allocator@D@2@@2@_K@Z
	?deallocate@?$allocator@V?$sub_match@PEBD@std@@@std@@QEAAXQEAV?$sub_match@PEBD@2@_K@Z
	?deallocate@?$allocator@V?$sub_match@V?$_String_const_iterator@V?$_String_val@U?$_Simple_types@D@std@@@std@@@std@@@std@@@std@@QEAAXQEAV?$sub_match@V?$_String_const_iterator@V?$_String_val@U?$_Simple_types@D@std@@@std@@@std@@@2@_K@Z
	?deallocate@?$allocator@V?$vector@UDevice_Info@@V?$allocator@UDevice_Info@@@std@@@std@@@std@@QEAAXQEAV?$vector@UDevice_Info@@V?$allocator@UDevice_Info@@@std@@@2@_K@Z
	?decimal_to_string_double@@YA?AV?$basic_string@DU?$char_traits@D@std@@V?$allocator@D@2@@std@@_KH@Z
	?decimal_to_string_float@@YA?AV?$basic_string@DU?$char_traits@D@std@@V?$allocator@D@2@@std@@IH@Z
	?decode@lodepng@@YAIAEAV?$vector@EV?$allocator@E@std@@@std@@AEAI1AEAVState@1@AEBV23@@Z
	?decode@lodepng@@YAIAEAV?$vector@EV?$allocator@E@std@@@std@@AEAI1AEAVState@1@PEBE_K@Z
	?decode@lodepng@@YAIAEAV?$vector@EV?$allocator@E@std@@@std@@AEAI1AEBV23@W4LodePNGColorType@@I@Z
	?decode@lodepng@@YAIAEAV?$vector@EV?$allocator@E@std@@@std@@AEAI1AEBV?$basic_string@DU?$char_traits@D@std@@V?$allocator@D@2@@3@W4LodePNGColorType@@I@Z
	?decode@lodepng@@YAIAEAV?$vector@EV?$allocator@E@std@@@std@@AEAI1PEBE_KW4LodePNGColorType@@I@Z
	?decompress@lodepng@@YAIAEAV?$vector@EV?$allocator@E@std@@@std@@AEBV23@AEBULodePNGDecompressSettings@@@Z
	?decompress@lodepng@@YAIAEAV?$vector@EV?$allocator@E@std@@@std@@PEBE_KAEBULodePNGDecompressSettings@@@Z
	?default_error_condition@_System_error_category@std@@UEBA?AVerror_condition@2@H@Z
	?default_error_condition@error_category@std@@UEBA?AVerror_condition@2@H@Z
	?default_filename@@YA?AV?$basic_string@DU?$char_traits@D@std@@V?$allocator@D@2@@std@@AEBV12@00_K@Z
	?default_filename@@YA?AV?$basic_string@DU?$char_traits@D@std@@V?$allocator@D@2@@std@@AEBV12@0_K@Z
	?delete_buffers@?$Memory@D@@QEAAXXZ
	?delete_buffers@?$Memory@E@@QEAAXXZ
	?delete_buffers@?$Memory@G@@QEAAXXZ
	?delete_buffers@?$Memory@H@@QEAAXXZ
	?delete_buffers@?$Memory@M@@QEAAXXZ
	?device_defines@Graphics@LBM_Domain@@QEBA?AV?$basic_string@DU?$char_traits@D@std@@V?$allocator@D@2@@std@@XZ
	?device_defines@LBM_Domain@@AEBA?AV?$basic_string@DU?$char_traits@D@std@@V?$allocator@D@2@@std@@XZ
	?do_compare@?$collate@D@std@@MEBAHPEBD000@Z
	?do_hash@?$collate@D@std@@MEBAJPEBD0@Z
	?do_time_step@LBM@@AEAAXXZ
	?do_transform@?$collate@D@std@@MEBA?AV?$basic_string@DU?$char_traits@D@std@@V?$allocator@D@2@@2@PEBD0@Z
	?draw@@YAXHHMHH@Z
	?draw_bitmap@@YAXPEBH@Z
	?draw_circle@@YAXAEBUfloat3@@MH@Z
	?draw_circle@@YAXHHHH@Z
	?draw_frame@Graphics@LBM@@QEAAPEAHXZ
	?draw_label@@YAXHHAEBV?$basic_string@DU?$char_traits@D@std@@V?$allocator@D@2@@std@@H@Z
	?draw_line@@YAXAEBUfloat3@@0H@Z
	?draw_line@@YAXHHHHH@Z
	?draw_pixel@@YAXAEBUfloat3@@H@Z
	?draw_pixel@@YAXHHH@Z
	?draw_rectangle@@YAXHHHHH@Z
	?draw_text@@YAXAEBUfloat3@@MAEBV?$basic_string@DU?$char_traits@D@std@@V?$allocator@D@2@@std@@H@Z
	?draw_text@@YAXHHAEBV?$basic_string@DU?$char_traits@D@std@@V?$allocator@D@2@@std@@H@Z
	?draw_triangle@@YAXAEBUfloat3@@00HHH_N@Z
	?draw_triangle@@YAXAEBUfloat3@@00H_N@Z
	?draw_triangle@@YAXHHHHHHH@Z
	?ellipsoid@@YA_NIIIAEBUfloat3@@0@Z
	?ellipsoid_plic@@YAMIIIAEBUfloat3@@0@Z
	?enable_device_capabilities@Device@@AEBA?AV?$basic_string@DU?$char_traits@D@std@@V?$allocator@D@2@@std@@XZ
	?encode@lodepng@@YAIAEAV?$vector@EV?$allocator@E@std@@@std@@AEBV23@IIAEAVState@1@@Z
	?encode@lodepng@@YAIAEAV?$vector@EV?$allocator@E@std@@@std@@AEBV23@IIW4LodePNGColorType@@I@Z
	?encode@lodepng@@YAIAEAV?$vector@EV?$allocator@E@std@@@std@@PEBEIIAEAVState@1@@Z
	?encode@lodepng@@YAIAEAV?$vector@EV?$allocator@E@std@@@std@@PEBEIIW4LodePNGColorType@@I@Z
	?encode@lodepng@@YAIAEBV?$basic_string@DU?$char_traits@D@std@@V?$allocator@D@2@@std@@AEBV?$vector@EV?$allocator@E@std@@@3@IIW4LodePNGColorType@@I@Z
	?encode@lodepng@@YAIAEBV?$basic_string@DU?$char_traits@D@std@@V?$allocator@D@2@@std@@PEBEIIW4LodePNGColorType@@I@Z
	?encode_image@@YAXPEAVImage@@AEBV?$basic_string@DU?$char_traits@D@std@@V?$allocator@D@2@@std@@1PEAU?$atomic@H@3@@Z
	?enqueue_draw_frame@Graphics@LBM_Domain@@QEAA_NHHHHH@Z
	?enqueue_initialize@LBM_Domain@@QEAAXXZ
	?enqueue_stream_collide@LBM_Domain@@QEAAXXZ
	?enqueue_surface_0@LBM_Domain@@QEAAXXZ
	?enqueue_surface_1@LBM_Domain@@QEAAXXZ
	?enqueue_surface_2@LBM_Domain@@QEAAXXZ
	?enqueue_surface_3@LBM_Domain@@QEAAXXZ
	?enqueue_transfer_extract_field@LBM_Domain@@QEAAXAEAVKernel@@II@Z
	?enqueue_transfer_insert_field@LBM_Domain@@QEAAXAEAVKernel@@II@Z
	?enqueue_unvoxelize_mesh_on_device@LBM_Domain@@QEAAXPEBUMesh@@E@Z
	?enqueue_update_fields@LBM_Domain@@QEAAXXZ
	?equals_regex@@YA_NAEBV?$basic_string@DU?$char_traits@D@std@@V?$allocator@D@2@@std@@0@Z
	?equivalent@error_category@std@@UEBA_NAEBVerror_code@2@H@Z
	?equivalent@error_category@std@@UEBA_NHAEBVerror_condition@2@@Z
	?erase@?$vector@_NV?$allocator@_N@std@@@std@@QEAA?AV?$_Vb_iterator@U?$_Wrap_alloc@V?$allocator@I@std@@@std@@@2@V?$_Vb_const_iterator@U?$_Wrap_alloc@V?$allocator@I@std@@@std@@@2@0@Z
	?find@?$basic_string@DU?$char_traits@D@std@@V?$allocator@D@2@@std@@QEBA_KAEBV12@_K@Z
	?finish_queue@LBM_Domain@@QEAAXXZ
	?getDevices@Platform@cl@@QEBAH_KPEAV?$vector@VDevice@cl@@V?$allocator@VDevice@cl@@@std@@@std@@@Z
	?get_area@LBM_Domain@@QEAA_KI@Z
	?get_bitmap@Graphics@LBM_Domain@@QEAAPEAHXZ
	?get_console_color@@YAHH@Z
	?get_devices@@YA?AV?$vector@UDevice_Info@@V?$allocator@UDevice_Info@@@std@@@std@@_N@Z
	?get_exe_path@@YA?AV?$basic_string@DU?$char_traits@D@std@@V?$allocator@D@2@@std@@XZ
	?get_font_pixels@@YA_KH@Z
	?get_main_arguments@@YA?AV?$vector@V?$basic_string@DU?$char_traits@D@std@@V?$allocator@D@2@@std@@V?$allocator@V?$basic_string@DU?$char_traits@D@std@@V?$allocator@D@2@@std@@@2@@std@@HQEAPEAD@Z
	?get_opencl_c_code@@YA?AV?$basic_string@DU?$char_traits@D@std@@V?$allocator@D@2@@std@@XZ
	?get_tau@LBM@@QEBAMXZ
	?get_velocity_set@LBM_Domain@@QEBAIXZ
	?get_zbuffer@Graphics@LBM_Domain@@QEAAPEAHXZ
	?imbue@?$basic_filebuf@DU?$char_traits@D@std@@@std@@MEAAXAEBVlocale@2@@Z
	?increment_time_step@LBM_Domain@@QEAAXI@Z
	?initialize@Info@@QEAAXPEAVLBM@@@Z
	?initialize@LBM@@AEAAXXZ
	?initialize_auxiliary_pointers@?$Memory@D@@AEAAXXZ
	?initialize_auxiliary_pointers@?$Memory@E@@AEAAXXZ
	?initialize_auxiliary_pointers@?$Memory@G@@AEAAXXZ
	?initialize_auxiliary_pointers@?$Memory@H@@AEAAXXZ
	?initialize_auxiliary_pointers@?$Memory@M@@AEAAXXZ
	?initialize_auxiliary_pointers@?$Memory@Ufloat3@@@@AEAAXXZ
	?input_I@Camera@@AEAAXXZ
	?input_J@Camera@@AEAAXXZ
	?input_K@Camera@@AEAAXXZ
	?input_L@Camera@@AEAAXXZ
	?input_key@Camera@@QEAAXH@Z
	?input_scroll_down@Camera@@QEAAXXZ
	?input_scroll_up@Camera@@QEAAXXZ
	?insert@?$basic_string@DU?$char_traits@D@std@@V?$allocator@D@2@@std@@QEAAAEAV12@_KQEBD0@Z
	?intersect_line_rectangle@@YA_NHHHHHHHH@Z
	?intersect_lines@@YA_NHHHHHHHH@Z
	?intersects_screen@@YA_NHHHHH@Z
	?is_off_screen@@YA_NHH@Z
	?is_off_screen@@YA_NHHH@Z
	?key_bindings@@YAXH@Z
	?key_windows@@YAHH@Z
	?lighting@@YAHHAEBUfloat3@@0_N@Z
	?load_file@lodepng@@YAIAEAV?$vector@EV?$allocator@E@std@@@std@@AEBV?$basic_string@DU?$char_traits@D@std@@V?$allocator@D@2@@3@@Z
	?lode_png_test_bitreader@@YAIPEBE_K1PEB_KPEAI@Z
	?lodepng_add_itext@@YAIPEAULodePNGInfo@@PEBD111@Z
	?lodepng_add_text@@YAIPEAULodePNGInfo@@PEBD1@Z
	?lodepng_can_have_alpha@@YAIPEBULodePNGColorMode@@@Z
	?lodepng_chunk_ancillary@@YAEPEBE@Z
	?lodepng_chunk_append@@YAIPEAPEAEPEA_KPEBE@Z
	?lodepng_chunk_check_crc@@YAIPEBE@Z
	?lodepng_chunk_create@@YAIPEAPEAEPEA_KIPEBDPEBE@Z
	?lodepng_chunk_data@@YAPEAEPEAE@Z
	?lodepng_chunk_data_const@@YAPEBEPEBE@Z
	?lodepng_chunk_find@@YAPEAEPEAE0QEBD@Z
	?lodepng_chunk_find_const@@YAPEBEPEBE0QEBD@Z
	?lodepng_chunk_generate_crc@@YAXPEAE@Z
	?lodepng_chunk_length@@YAIPEBE@Z
	?lodepng_chunk_next@@YAPEAEPEAE0@Z
	?lodepng_chunk_next_const@@YAPEBEPEBE0@Z
	?lodepng_chunk_private@@YAEPEBE@Z
	?lodepng_chunk_safetocopy@@YAEPEBE@Z
	?lodepng_chunk_type@@YAXQEADPEBE@Z
	?lodepng_chunk_type_equals@@YAEPEBEPEBD@Z
	?lodepng_clear_icc@@YAXPEAULodePNGInfo@@@Z
	?lodepng_clear_itext@@YAXPEAULodePNGInfo@@@Z
	?lodepng_clear_text@@YAXPEAULodePNGInfo@@@Z
	?lodepng_color_mode_cleanup@@YAXPEAULodePNGColorMode@@@Z
	?lodepng_color_mode_copy@@YAIPEAULodePNGColorMode@@PEBU1@@Z
	?lodepng_color_mode_init@@YAXPEAULodePNGColorMode@@@Z
	?lodepng_color_mode_make@@YA?AULodePNGColorMode@@W4LodePNGColorType@@I@Z
	?lodepng_color_stats_init@@YAXPEAULodePNGColorStats@@@Z
	?lodepng_compress_settings_init@@YAXPEAULodePNGCompressSettings@@@Z
	?lodepng_compute_color_stats@@YAIPEAULodePNGColorStats@@PEBEIIPEBULodePNGColorMode@@@Z
	?lodepng_convert@@YAIPEAEPEBEPEBULodePNGColorMode@@2II@Z
	?lodepng_convert_rgb@@YAIPEAI00IIIPEBULodePNGColorMode@@1@Z
	?lodepng_crc32@@YAIPEBE_K@Z
	?lodepng_decode24@@YAIPEAPEAEPEAI1PEBE_K@Z
	?lodepng_decode24_file@@YAIPEAPEAEPEAI1PEBD@Z
	?lodepng_decode32@@YAIPEAPEAEPEAI1PEBE_K@Z
	?lodepng_decode32_file@@YAIPEAPEAEPEAI1PEBD@Z
	?lodepng_decode@@YAIPEAPEAEPEAI1PEAULodePNGState@@PEBE_K@Z
	?lodepng_decode_file@@YAIPEAPEAEPEAI1PEBDW4LodePNGColorType@@I@Z
	?lodepng_decode_memory@@YAIPEAPEAEPEAI1PEBE_KW4LodePNGColorType@@I@Z
	?lodepng_decoder_settings_init@@YAXPEAULodePNGDecoderSettings@@@Z
	?lodepng_decompress_settings_init@@YAXPEAULodePNGDecompressSettings@@@Z
	?lodepng_deflate@@YAIPEAPEAEPEA_KPEBE_KPEBULodePNGCompressSettings@@@Z
	?lodepng_encode24@@YAIPEAPEAEPEA_KPEBEII@Z
	?lodepng_encode24_file@@YAIPEBDPEBEII@Z
	?lodepng_encode32@@YAIPEAPEAEPEA_KPEBEII@Z
	?lodepng_encode32_file@@YAIPEBDPEBEII@Z
	?lodepng_encode@@YAIPEAPEAEPEA_KPEBEIIPEAULodePNGState@@@Z
	?lodepng_encode_file@@YAIPEBDPEBEIIW4LodePNGColorType@@I@Z
	?lodepng_encode_memory@@YAIPEAPEAEPEA_KPEBEIIW4LodePNGColorType@@I@Z
	?lodepng_encoder_settings_init@@YAXPEAULodePNGEncoderSettings@@@Z
	?lodepng_error_text@@YAPEBDI@Z
	?lodepng_get_bpp@@YAIPEBULodePNGColorMode@@@Z
	?lodepng_get_channels@@YAIPEBULodePNGColorMode@@@Z
	?lodepng_get_raw_size@@YA_KIIPEBULodePNGColorMode@@@Z
	?lodepng_has_palette_alpha@@YAIPEBULodePNGColorMode@@@Z
	?lodepng_huffman_code_lengths@@YAIPEAIPEBI_KI@Z
	?lodepng_inflate@@YAIPEAPEAEPEA_KPEBE_KPEBULodePNGDecompressSettings@@@Z
	?lodepng_info_cleanup@@YAXPEAULodePNGInfo@@@Z
	?lodepng_info_copy@@YAIPEAULodePNGInfo@@PEBU1@@Z
	?lodepng_info_init@@YAXPEAULodePNGInfo@@@Z
	?lodepng_inspect@@YAIPEAI0PEAULodePNGState@@PEBE_K@Z
	?lodepng_inspect_chunk@@YAIPEAULodePNGState@@_KPEBE1@Z
	?lodepng_is_alpha_type@@YAIPEBULodePNGColorMode@@@Z
	?lodepng_is_greyscale_type@@YAIPEBULodePNGColorMode@@@Z
	?lodepng_is_palette_type@@YAIPEBULodePNGColorMode@@@Z
	?lodepng_load_file@@YAIPEAPEAEPEA_KPEBD@Z
	?lodepng_palette_add@@YAIPEAULodePNGColorMode@@EEEE@Z
	?lodepng_palette_clear@@YAXPEAULodePNGColorMode@@@Z
	?lodepng_save_file@@YAIPEBE_KPEBD@Z
	?lodepng_set_icc@@YAIPEAULodePNGInfo@@PEBDPEBEI@Z
	?lodepng_state_cleanup@@YAXPEAULodePNGState@@@Z
	?lodepng_state_copy@@YAXPEAULodePNGState@@PEBU1@@Z
	?lodepng_state_init@@YAXPEAULodePNGState@@@Z
	?lodepng_zlib_compress@@YAIPEAPEAEPEA_KPEBE_KPEBULodePNGCompressSettings@@@Z
	?lodepng_zlib_decompress@@YAIPEAPEAEPEA_KPEBE_KPEBULodePNGDecompressSettings@@@Z
	?main_setup@@YAXXZ
	?make_error_code@std@@YA?AVerror_code@1@W4errc@1@@Z
	?message@_Generic_error_category@std@@UEBA?AV?$basic_string@DU?$char_traits@D@std@@V?$allocator@D@2@@2@H@Z
	?message@_System_error_category@std@@UEBA?AV?$basic_string@DU?$char_traits@D@std@@V?$allocator@D@2@@2@H@Z
	?name@_Generic_error_category@std@@UEBAPEBDXZ
	?name@_System_error_category@std@@UEBAPEBDXZ
	?name@locale@std@@QEBA?AV?$basic_string@DU?$char_traits@D@std@@V?$allocator@D@2@@2@XZ
	?next_frame@Graphics@LBM@@QEAA_N_KM@Z
	?open@?$basic_filebuf@DU?$char_traits@D@std@@@std@@QEAAPEAV12@PEBDHH@Z
	?opencl_c_container@@YA?AV?$basic_string@DU?$char_traits@D@std@@V?$allocator@D@2@@std@@XZ
	?overflow@?$basic_filebuf@DU?$char_traits@D@std@@@std@@MEAAHH@Z
	?pbackfail@?$basic_filebuf@DU?$char_traits@D@std@@@std@@MEAAHH@Z
	?pipe@@YA_NIIIAEBUfloat3@@0M@Z
	?plane@@YA_NIIIAEBUfloat3@@0@Z
	?plane_plic@@YAMIIIAEBUfloat3@@0@Z
	?plic_cube_inverse@@YAMMUfloat3@@@Z
	?print@@YAXAEBV?$basic_string@DU?$char_traits@D@std@@V?$allocator@D@2@@std@@@Z
	?print@@YAXAEBV?$basic_string@DU?$char_traits@D@std@@V?$allocator@D@2@@std@@H@Z
	?print_color@@YAXHH@Z
	?print_color_reset@@YAXXZ
	?print_device_info@@YAXAEBUDevice_Info@@@Z
	?print_error@@YAXAEBV?$basic_string@DU?$char_traits@D@std@@V?$allocator@D@2@@std@@@Z
	?print_finalize@Info@@QEAAXXZ
	?print_frame@Graphics@LBM@@QEAAXXZ
	?print_image@@YAXPEBVImage@@II@Z
	?print_info@@YAXAEBV?$basic_string@DU?$char_traits@D@std@@V?$allocator@D@2@@std@@@Z
	?print_initialize@Info@@QEAAXXZ
	?print_logo@Info@@QEBAXXZ
	?print_message@@YAXAEBV?$basic_string@DU?$char_traits@D@std@@V?$allocator@D@2@@std@@0HH@Z
	?print_percentage@@YA?AV?$basic_string@DU?$char_traits@D@std@@V?$allocator@D@2@@std@@N@Z
	?print_time@@YA?AV?$basic_string@DU?$char_traits@D@std@@V?$allocator@D@2@@std@@N@Z
	?print_update@Info@@QEBAXXZ
	?print_warning@@YAXAEBV?$basic_string@DU?$char_traits@D@std@@V?$allocator@D@2@@std@@@Z
	?println@@YAXAEBV?$basic_string@DU?$char_traits@D@std@@V?$allocator@D@2@@std@@@Z
	?read_from_device@?$Memory_Container@E@LBM@@QEAAXXZ
	?read_png@@YAPEAVImage@@AEBV?$basic_string@DU?$char_traits@D@std@@V?$allocator@D@2@@std@@PEAV1@@Z
	?read_stl_raw@@YAPEAUMesh@@AEBV?$basic_string@DU?$char_traits@D@std@@V?$allocator@D@2@@std@@_NAEBUfloat3@@2AEBUfloat3x3@@M@Z
	?replace@?$basic_string@DU?$char_traits@D@std@@V?$allocator@D@2@@std@@QEAAAEAV12@_K_KQEBD0@Z
	?replace@@YA?AV?$basic_string@DU?$char_traits@D@std@@V?$allocator@D@2@@std@@AEBV12@00@Z
	?rescale@@YAPEAVImage@@PEBV1@IIPEAV1@@Z
	?reserve@?$basic_string@_WU?$char_traits@_W@std@@V?$allocator@_W@2@@std@@QEAAX_K@Z
	?reset@LBM@@QEAAXXZ
	?reset_time_step@LBM_Domain@@QEAAXXZ
	?resize@?$basic_string@DU?$char_traits@D@std@@V?$allocator@D@2@@std@@QEAAX_KD@Z
	?resize@?$basic_string@_WU?$char_traits@_W@std@@V?$allocator@_W@2@@std@@QEAAX_K_W@Z
	?resize@?$vector@U_Loop_vals_t@std@@V?$allocator@U_Loop_vals_t@std@@@2@@std@@QEAAX_K@Z
	?resize@?$vector@_NV?$allocator@_N@std@@@std@@QEAAX_K_N@Z
	?resolution@@YA?AUuint3@@Ufloat3@@I@Z
	?run@LBM@@QEAAX_K@Z
	?sanity_checks_constructor@LBM@@AEAAXAEBV?$vector@UDevice_Info@@V?$allocator@UDevice_Info@@@std@@@std@@IIIIIIMMMMMMMIM@Z
	?sanity_checks_initialization@LBM@@AEAAXXZ
	?save_file@lodepng@@YAIAEBV?$vector@EV?$allocator@E@std@@@std@@AEBV?$basic_string@DU?$char_traits@D@std@@V?$allocator@D@2@@3@@Z
	?seekoff@?$basic_filebuf@DU?$char_traits@D@std@@@std@@MEAA?AV?$fpos@U_Mbstatet@@@2@_JHH@Z
	?seekpos@?$basic_filebuf@DU?$char_traits@D@std@@@std@@MEAA?AV?$fpos@U_Mbstatet@@@2@V32@H@Z
	?select_device_with_most_flops@@YA?AUDevice_Info@@AEBV?$vector@UDevice_Info@@V?$allocator@UDevice_Info@@@std@@@std@@@Z
	?set_camera_centered@Graphics@LBM@@QEAAXMMMM@Z
	?set_camera_free@Graphics@LBM@@QEAAXAEBUfloat3@@MMM@Z
	?set_light@@YAXIAEBUfloat3@@@Z
	?setbuf@?$basic_filebuf@DU?$char_traits@D@std@@@std@@MEAAPEAV?$basic_streambuf@DU?$char_traits@D@std@@@2@PEAD_J@Z
	?sleep@@YAXN@Z
	?smart_device_selection@@YA?AV?$vector@UDevice_Info@@V?$allocator@UDevice_Info@@@std@@@std@@I@Z
	?sphere@@YA_NIIIAEBUfloat3@@M@Z
	?sphere_plic@@YAMIIIAEBUfloat3@@M@Z
	?split_regex@@YA?AV?$vector@V?$basic_string@DU?$char_traits@D@std@@V?$allocator@D@2@@std@@V?$allocator@V?$basic_string@DU?$char_traits@D@std@@V?$allocator@D@2@@std@@@2@@std@@AEBV?$basic_string@DU?$char_traits@D@std@@V?$allocator@D@2@@2@0@Z
	?sync@?$basic_filebuf@DU?$char_traits@D@std@@@std@@MEAAHXZ
	?time@Info@@QEBANXZ
	?to_lower@@YA?AV?$basic_string@DU?$char_traits@D@std@@V?$allocator@D@2@@std@@AEBV12@@Z
	?to_string@@YA?AV?$basic_string@DU?$char_traits@D@std@@V?$allocator@D@2@@std@@H@Z
	?to_string@@YA?AV?$basic_string@DU?$char_traits@D@std@@V?$allocator@D@2@@std@@I@Z
	?to_string@@YA?AV?$basic_string@DU?$char_traits@D@std@@V?$allocator@D@2@@std@@M@Z
	?to_string@@YA?AV?$basic_string@DU?$char_traits@D@std@@V?$allocator@D@2@@std@@MI@Z
	?to_string@@YA?AV?$basic_string@DU?$char_traits@D@std@@V?$allocator@D@2@@std@@NI@Z
	?to_string@@YA?AV?$basic_string@DU?$char_traits@D@std@@V?$allocator@D@2@@std@@_K@Z
	?to_uint@@YAIM@Z
	?torus_x@@YA_NIIIAEBUfloat3@@MM@Z
	?torus_y@@YA_NIIIAEBUfloat3@@MM@Z
	?torus_z@@YA_NIIIAEBUfloat3@@MM@Z
	?translate@?$_Regex_traits@D@std@@QEBADD@Z
	?triangle@@YA_NIIIAEBUfloat3@@00@Z
	?trim@@YA?AV?$basic_string@DU?$char_traits@D@std@@V?$allocator@D@2@@std@@AEBV12@@Z
	?uflow@?$basic_filebuf@DU?$char_traits@D@std@@@std@@MEAAHXZ
	?underflow@?$basic_filebuf@DU?$char_traits@D@std@@@std@@MEAAHXZ
	?unvoxelize_mesh_on_device@LBM@@QEAAXPEBUMesh@@E@Z
	?update@Info@@QEAAXN@Z
	?update_camera@Graphics@LBM_Domain@@AEAA_NXZ
	?update_fields@LBM@@QEAAXXZ
	?update_frame@@YAXN@Z
	?update_matrix@Camera@@QEAAXXZ
	?update_rotation@Camera@@AEAAXNN@Z
	?update_state@Camera@@QEAAXXZ
	?voxelize_mesh_on_device@LBM@@QEAAXPEBUMesh@@EAEBUfloat3@@11@Z
	?voxelize_mesh_on_device@LBM_Domain@@QEAAXPEBUMesh@@EAEBUfloat3@@11@Z
	?voxelize_stl@LBM@@QEAAXAEBV?$basic_string@DU?$char_traits@D@std@@V?$allocator@D@2@@std@@AEBUfloat3@@AEBUfloat3x3@@ME@Z
	?voxelize_stl@LBM@@QEAAXAEBV?$basic_string@DU?$char_traits@D@std@@V?$allocator@D@2@@std@@AEBUfloat3@@ME@Z
	?voxelize_stl@LBM@@QEAAXAEBV?$basic_string@DU?$char_traits@D@std@@V?$allocator@D@2@@std@@AEBUfloat3x3@@ME@Z
	?voxelize_stl@LBM@@QEAAXAEBV?$basic_string@DU?$char_traits@D@std@@V?$allocator@D@2@@std@@ME@Z
	?wait@@YAXXZ
	?what@exception@std@@UEBAPEBDXZ
	?what@filesystem_error@filesystem@std@@UEBAPEBDXZ
	?write_bmp@@YAXAEBV?$basic_string@DU?$char_traits@D@std@@V?$allocator@D@2@@std@@PEBVImage@@@Z
	?write_file@@YAXAEBV?$basic_string@DU?$char_traits@D@std@@V?$allocator@D@2@@std@@0@Z
	?write_frame@Graphics@LBM@@QEAAXAEBV?$basic_string@DU?$char_traits@D@std@@V?$allocator@D@2@@std@@00_N@Z
	?write_frame@Graphics@LBM@@QEAAXIIIIAEBV?$basic_string@DU?$char_traits@D@std@@V?$allocator@D@2@@std@@00_N@Z
	?write_frame_bmp@Graphics@LBM@@QEAAXAEBV?$basic_string@DU?$char_traits@D@std@@V?$allocator@D@2@@std@@_N@Z
	?write_frame_bmp@Graphics@LBM@@QEAAXIIIIAEBV?$basic_string@DU?$char_traits@D@std@@V?$allocator@D@2@@std@@_N@Z
	?write_frame_png@Graphics@LBM@@QEAAXAEBV?$basic_string@DU?$char_traits@D@std@@V?$allocator@D@2@@std@@_N@Z
	?write_frame_png@Graphics@LBM@@QEAAXIIIIAEBV?$basic_string@DU?$char_traits@D@std@@V?$allocator@D@2@@std@@_N@Z
	?write_frame_qoi@Graphics@LBM@@QEAAXAEBV?$basic_string@DU?$char_traits@D@std@@V?$allocator@D@2@@std@@_N@Z
	?write_frame_qoi@Graphics@LBM@@QEAAXIIIIAEBV?$basic_string@DU?$char_traits@D@std@@V?$allocator@D@2@@std@@_N@Z
	?write_mesh_to_vtk@LBM@@QEBAXPEBUMesh@@AEBV?$basic_string@DU?$char_traits@D@std@@V?$allocator@D@2@@std@@@Z
	?write_png@@YAXAEBV?$basic_string@DU?$char_traits@D@std@@V?$allocator@D@2@@std@@PEBVImage@@@Z
	?write_qoi@@YAXAEBV?$basic_string@DU?$char_traits@D@std@@V?$allocator@D@2@@std@@PEBVImage@@@Z
	?write_status@LBM@@QEAAXAEBV?$basic_string@DU?$char_traits@D@std@@V?$allocator@D@2@@std@@@Z
	?xsgetn@?$basic_filebuf@DU?$char_traits@D@std@@@std@@MEAA_JPEAD_J@Z
	?xsputn@?$basic_filebuf@DU?$char_traits@D@std@@@std@@MEAA_JPEBD_J@Z
	WinMain
	main
